

Microchip MPLAB XC8 Assembler V2.46 build 20240104201356 
                                                                                               Wed Oct 22 16:13:24 2025

Microchip MPLAB XC8 C Compiler v2.46 (Free license) build 20240104201356 Og1 
     1                           	processor	16F1936
     2                           	pagewidth 120
     3                           	opt	flic
     4                           	psect	idataBANK0,global,class=CODE,delta=2,noexec
     5                           	psect	stringtext1,global,class=STRCODE,delta=2,noexec
     6                           	psect	cinit,global,class=CODE,merge=1,delta=2
     7                           	psect	bssCOMMON,global,class=COMMON,space=1,delta=1,noexec
     8                           	psect	bssBANK0,global,class=BANK0,space=1,delta=1,noexec
     9                           	psect	dataBANK0,global,class=BANK0,space=1,delta=1,noexec
    10                           	psect	bssBANK1,global,class=BANK1,space=1,delta=1,noexec
    11                           	psect	clrtext,global,class=CODE,delta=2
    12                           	psect	cstackCOMMON,global,class=COMMON,space=1,delta=1,noexec
    13                           	psect	cstackBANK0,global,class=BANK0,space=1,delta=1,noexec
    14                           	psect	maintext,global,class=CODE,merge=1,split=1,delta=2
    15                           	psect	text1,local,class=CODE,merge=1,delta=2
    16                           	psect	text2,local,class=CODE,merge=1,delta=2
    17                           	psect	text3,local,class=CODE,merge=1,delta=2
    18                           	psect	text4,local,class=CODE,merge=1,delta=2
    19                           	psect	text5,local,class=CODE,merge=1,delta=2
    20                           	psect	text6,local,class=CODE,merge=1,delta=2
    21                           	psect	text7,local,class=CODE,merge=1,delta=2
    22                           	psect	text8,local,class=CODE,merge=1,delta=2
    23                           	psect	text9,local,class=CODE,merge=1,delta=2
    24                           	psect	text10,local,class=CODE,merge=1,delta=2
    25                           	psect	text11,local,class=CODE,merge=1,delta=2
    26                           	psect	text12,local,class=CODE,merge=1,delta=2
    27                           	psect	text13,local,class=CODE,merge=1,delta=2
    28                           	psect	text14,local,class=CODE,merge=1,delta=2
    29                           	psect	text15,local,class=CODE,merge=1,delta=2
    30                           	psect	text16,local,class=CODE,merge=1,delta=2
    31                           	psect	text17,local,class=CODE,merge=1,delta=2
    32                           	psect	text18,local,class=CODE,merge=1,delta=2
    33                           	psect	text19,local,class=CODE,merge=1,delta=2
    34                           	psect	text20,local,class=CODE,merge=1,delta=2
    35                           	psect	text21,local,class=CODE,merge=1,delta=2
    36                           	psect	text22,local,class=CODE,merge=1,delta=2
    37                           	psect	text23,local,class=CODE,merge=1,delta=2
    38                           	psect	text24,local,class=CODE,merge=1,delta=2
    39                           	psect	text25,local,class=CODE,merge=1,delta=2
    40                           	psect	text26,local,class=CODE,merge=1,delta=2
    41                           	psect	text27,local,class=CODE,merge=1,delta=2
    42                           	psect	text28,local,class=CODE,merge=1,delta=2
    43                           	psect	text29,local,class=CODE,merge=1,delta=2,group=2
    44                           	psect	text30,local,class=CODE,merge=1,delta=2
    45                           	psect	text31,local,class=CODE,merge=1,delta=2
    46                           	psect	text32,local,class=CODE,merge=1,delta=2
    47                           	psect	text33,local,class=CODE,merge=1,delta=2
    48                           	psect	text34,local,class=CODE,merge=1,delta=2
    49                           	psect	text35,local,class=CODE,merge=1,delta=2
    50                           	psect	text36,local,class=CODE,merge=1,delta=2
    51                           	psect	text37,local,class=CODE,merge=1,delta=2
    52                           	psect	text38,local,class=CODE,merge=1,delta=2
    53                           	psect	text39,local,class=CODE,merge=1,delta=2
    54                           	psect	text40,local,class=CODE,merge=1,delta=2,group=2
    55                           	psect	text41,local,class=CODE,merge=1,delta=2
    56                           	psect	text42,local,class=CODE,merge=1,delta=2
    57                           	psect	text43,local,class=CODE,merge=1,delta=2
    58                           	psect	text44,local,class=CODE,merge=1,delta=2
    59                           	psect	text45,local,class=CODE,merge=1,delta=2
    60                           	psect	text46,local,class=CODE,merge=1,delta=2
    61                           	psect	text47,local,class=CODE,merge=1,delta=2
    62                           	psect	text48,local,class=CODE,merge=1,delta=2
    63                           	psect	text49,local,class=CODE,merge=1,delta=2
    64                           	psect	text50,local,class=CODE,merge=1,delta=2
    65                           	psect	text51,local,class=CODE,merge=1,delta=2
    66                           	psect	text52,local,class=CODE,merge=1,delta=2
    67                           	psect	text53,local,class=CODE,merge=1,delta=2
    68                           	psect	text54,local,class=CODE,merge=1,delta=2
    69                           	psect	intentry,global,class=CODE,delta=2
    70                           	psect	text56,local,class=CODE,merge=1,delta=2
    71                           	psect	text57,local,class=CODE,merge=1,delta=2
    72                           	psect	text58,local,class=CODE,merge=1,delta=2
    73                           	psect	text59,local,class=CODE,merge=1,delta=2
    74                           	psect	text60,local,class=CODE,merge=1,delta=2
    75                           	psect	text61,local,class=CODE,merge=1,delta=2
    76                           	psect	text62,local,class=CODE,merge=1,delta=2
    77                           	psect	text63,local,class=CODE,merge=1,delta=2
    78                           	psect	text64,local,class=CODE,merge=1,delta=2
    79                           	psect	config,global,abs,ovrld,class=CONFIG,space=4,delta=2,noexec
    80                           	dabs	1,0x7E,2
    81     0000                     
    82                           ; Version 2.20
    83                           ; Generated 12/02/2020 GMT
    84                           ; 
    85                           ; Copyright © 2020, Microchip Technology Inc. and its subsidiaries ("Microchip")
    86                           ; All rights reserved.
    87                           ; 
    88                           ; This software is developed by Microchip Technology Inc. and its subsidiaries ("Microch
      +                          ip").
    89                           ; 
    90                           ; Redistribution and use in source and binary forms, with or without modification, are
    91                           ; permitted provided that the following conditions are met:
    92                           ; 
    93                           ;     1. Redistributions of source code must retain the above copyright notice, this lis
      +                          t of
    94                           ;        conditions and the following disclaimer.
    95                           ; 
    96                           ;     2. Redistributions in binary form must reproduce the above copyright notice, this 
      +                          list
    97                           ;        of conditions and the following disclaimer in the documentation and/or other
    98                           ;        materials provided with the distribution.
    99                           ; 
   100                           ;     3. Microchip's name may not be used to endorse or promote products derived from th
      +                          is
   101                           ;        software without specific prior written permission.
   102                           ; 
   103                           ; THIS SOFTWARE IS PROVIDED BY MICROCHIP "AS IS" AND ANY EXPRESS OR IMPLIED WARRANTIES,
   104                           ; INCLUDING, BUT NOT LIMITED TO, THE IMPLIED WARRANTIES OF MERCHANTABILITY AND FITNESS F
      +                          OR
   105                           ; PURPOSE ARE DISCLAIMED.  IN NO EVENT SHALL MICROCHIP BE LIABLE FOR ANY DIRECT, INDIREC
      +                          T,
   106                           ; INCIDENTAL, SPECIAL, EXEMPLARY, OR CONSEQUENTIAL DAMAGES (INCLUDING BUT NOT LIMITED TO
   107                           ; PROCUREMENT OF SUBSTITUTE GOODS OR SERVICES; LOSS OF USE, DATA OR PROFITS; OR BUSINESS
   108                           ; INTERRUPTION) HOWSOEVER CAUSED AND ON ANY THEORY OF LIABILITY, WHETHER IN CONTRACT, ST
      +                          RICT
   109                           ; LIABILITY, OR TORT (INCLUDING NEGLIGENCE OR OTHERWISE) ARISING IN ANY WAY OUT OF THE U
      +                          SE OF
   110                           ; THIS SOFTWARE, EVEN IF ADVISED OF THE POSSIBILITY OF SUCH DAMAGE.
   111                           ; 
   112                           ; 
   113                           ; Code-generator required, PIC16F1936 Definitions
   114                           ; 
   115                           ; SFR Addresses
   116     0000                     	;# 
   117     0001                     	;# 
   118     0002                     	;# 
   119     0003                     	;# 
   120     0004                     	;# 
   121     0005                     	;# 
   122     0006                     	;# 
   123     0007                     	;# 
   124     0008                     	;# 
   125     0009                     	;# 
   126     000A                     	;# 
   127     000B                     	;# 
   128     000C                     	;# 
   129     000D                     	;# 
   130     000E                     	;# 
   131     0010                     	;# 
   132     0011                     	;# 
   133     0012                     	;# 
   134     0013                     	;# 
   135     0015                     	;# 
   136     0016                     	;# 
   137     0016                     	;# 
   138     0017                     	;# 
   139     0018                     	;# 
   140     0019                     	;# 
   141     001A                     	;# 
   142     001B                     	;# 
   143     001C                     	;# 
   144     001E                     	;# 
   145     001F                     	;# 
   146     008C                     	;# 
   147     008D                     	;# 
   148     008E                     	;# 
   149     0090                     	;# 
   150     0091                     	;# 
   151     0092                     	;# 
   152     0093                     	;# 
   153     0095                     	;# 
   154     0096                     	;# 
   155     0097                     	;# 
   156     0098                     	;# 
   157     0099                     	;# 
   158     009A                     	;# 
   159     009B                     	;# 
   160     009B                     	;# 
   161     009C                     	;# 
   162     009D                     	;# 
   163     009E                     	;# 
   164     010C                     	;# 
   165     010D                     	;# 
   166     010E                     	;# 
   167     0110                     	;# 
   168     0111                     	;# 
   169     0112                     	;# 
   170     0113                     	;# 
   171     0114                     	;# 
   172     0115                     	;# 
   173     0116                     	;# 
   174     0117                     	;# 
   175     0118                     	;# 
   176     0119                     	;# 
   177     011A                     	;# 
   178     011B                     	;# 
   179     011D                     	;# 
   180     018C                     	;# 
   181     018D                     	;# 
   182     0191                     	;# 
   183     0191                     	;# 
   184     0192                     	;# 
   185     0193                     	;# 
   186     0193                     	;# 
   187     0193                     	;# 
   188     0194                     	;# 
   189     0195                     	;# 
   190     0196                     	;# 
   191     0199                     	;# 
   192     019A                     	;# 
   193     019B                     	;# 
   194     019B                     	;# 
   195     019B                     	;# 
   196     019B                     	;# 
   197     019C                     	;# 
   198     019C                     	;# 
   199     019D                     	;# 
   200     019E                     	;# 
   201     019F                     	;# 
   202     020D                     	;# 
   203     0210                     	;# 
   204     0211                     	;# 
   205     0212                     	;# 
   206     0213                     	;# 
   207     0214                     	;# 
   208     0215                     	;# 
   209     0215                     	;# 
   210     0216                     	;# 
   211     0217                     	;# 
   212     0291                     	;# 
   213     0291                     	;# 
   214     0292                     	;# 
   215     0293                     	;# 
   216     0294                     	;# 
   217     0295                     	;# 
   218     0295                     	;# 
   219     0296                     	;# 
   220     0298                     	;# 
   221     0298                     	;# 
   222     0299                     	;# 
   223     029A                     	;# 
   224     029B                     	;# 
   225     029C                     	;# 
   226     029C                     	;# 
   227     029D                     	;# 
   228     029E                     	;# 
   229     029F                     	;# 
   230     0311                     	;# 
   231     0311                     	;# 
   232     0312                     	;# 
   233     0313                     	;# 
   234     0314                     	;# 
   235     0315                     	;# 
   236     0315                     	;# 
   237     0316                     	;# 
   238     0318                     	;# 
   239     0318                     	;# 
   240     0319                     	;# 
   241     031A                     	;# 
   242     031C                     	;# 
   243     031C                     	;# 
   244     031D                     	;# 
   245     031E                     	;# 
   246     0394                     	;# 
   247     0395                     	;# 
   248     0396                     	;# 
   249     0415                     	;# 
   250     0416                     	;# 
   251     0417                     	;# 
   252     041C                     	;# 
   253     041D                     	;# 
   254     041E                     	;# 
   255     0791                     	;# 
   256     0792                     	;# 
   257     0793                     	;# 
   258     0794                     	;# 
   259     0795                     	;# 
   260     0798                     	;# 
   261     0799                     	;# 
   262     07A0                     	;# 
   263     07A1                     	;# 
   264     07A3                     	;# 
   265     07A4                     	;# 
   266     07A6                     	;# 
   267     07A7                     	;# 
   268     07A9                     	;# 
   269     07AA                     	;# 
   270     0FE4                     	;# 
   271     0FE5                     	;# 
   272     0FE6                     	;# 
   273     0FE7                     	;# 
   274     0FE8                     	;# 
   275     0FE9                     	;# 
   276     0FEA                     	;# 
   277     0FEB                     	;# 
   278     0FED                     	;# 
   279     0FEE                     	;# 
   280     0FEF                     	;# 
   281     0000                     	;# 
   282     0001                     	;# 
   283     0002                     	;# 
   284     0003                     	;# 
   285     0004                     	;# 
   286     0005                     	;# 
   287     0006                     	;# 
   288     0007                     	;# 
   289     0008                     	;# 
   290     0009                     	;# 
   291     000A                     	;# 
   292     000B                     	;# 
   293     000C                     	;# 
   294     000D                     	;# 
   295     000E                     	;# 
   296     0010                     	;# 
   297     0011                     	;# 
   298     0012                     	;# 
   299     0013                     	;# 
   300     0015                     	;# 
   301     0016                     	;# 
   302     0016                     	;# 
   303     0017                     	;# 
   304     0018                     	;# 
   305     0019                     	;# 
   306     001A                     	;# 
   307     001B                     	;# 
   308     001C                     	;# 
   309     001E                     	;# 
   310     001F                     	;# 
   311     008C                     	;# 
   312     008D                     	;# 
   313     008E                     	;# 
   314     0090                     	;# 
   315     0091                     	;# 
   316     0092                     	;# 
   317     0093                     	;# 
   318     0095                     	;# 
   319     0096                     	;# 
   320     0097                     	;# 
   321     0098                     	;# 
   322     0099                     	;# 
   323     009A                     	;# 
   324     009B                     	;# 
   325     009B                     	;# 
   326     009C                     	;# 
   327     009D                     	;# 
   328     009E                     	;# 
   329     010C                     	;# 
   330     010D                     	;# 
   331     010E                     	;# 
   332     0110                     	;# 
   333     0111                     	;# 
   334     0112                     	;# 
   335     0113                     	;# 
   336     0114                     	;# 
   337     0115                     	;# 
   338     0116                     	;# 
   339     0117                     	;# 
   340     0118                     	;# 
   341     0119                     	;# 
   342     011A                     	;# 
   343     011B                     	;# 
   344     011D                     	;# 
   345     018C                     	;# 
   346     018D                     	;# 
   347     0191                     	;# 
   348     0191                     	;# 
   349     0192                     	;# 
   350     0193                     	;# 
   351     0193                     	;# 
   352     0193                     	;# 
   353     0194                     	;# 
   354     0195                     	;# 
   355     0196                     	;# 
   356     0199                     	;# 
   357     019A                     	;# 
   358     019B                     	;# 
   359     019B                     	;# 
   360     019B                     	;# 
   361     019B                     	;# 
   362     019C                     	;# 
   363     019C                     	;# 
   364     019D                     	;# 
   365     019E                     	;# 
   366     019F                     	;# 
   367     020D                     	;# 
   368     0210                     	;# 
   369     0211                     	;# 
   370     0212                     	;# 
   371     0213                     	;# 
   372     0214                     	;# 
   373     0215                     	;# 
   374     0215                     	;# 
   375     0216                     	;# 
   376     0217                     	;# 
   377     0291                     	;# 
   378     0291                     	;# 
   379     0292                     	;# 
   380     0293                     	;# 
   381     0294                     	;# 
   382     0295                     	;# 
   383     0295                     	;# 
   384     0296                     	;# 
   385     0298                     	;# 
   386     0298                     	;# 
   387     0299                     	;# 
   388     029A                     	;# 
   389     029B                     	;# 
   390     029C                     	;# 
   391     029C                     	;# 
   392     029D                     	;# 
   393     029E                     	;# 
   394     029F                     	;# 
   395     0311                     	;# 
   396     0311                     	;# 
   397     0312                     	;# 
   398     0313                     	;# 
   399     0314                     	;# 
   400     0315                     	;# 
   401     0315                     	;# 
   402     0316                     	;# 
   403     0318                     	;# 
   404     0318                     	;# 
   405     0319                     	;# 
   406     031A                     	;# 
   407     031C                     	;# 
   408     031C                     	;# 
   409     031D                     	;# 
   410     031E                     	;# 
   411     0394                     	;# 
   412     0395                     	;# 
   413     0396                     	;# 
   414     0415                     	;# 
   415     0416                     	;# 
   416     0417                     	;# 
   417     041C                     	;# 
   418     041D                     	;# 
   419     041E                     	;# 
   420     0791                     	;# 
   421     0792                     	;# 
   422     0793                     	;# 
   423     0794                     	;# 
   424     0795                     	;# 
   425     0798                     	;# 
   426     0799                     	;# 
   427     07A0                     	;# 
   428     07A1                     	;# 
   429     07A3                     	;# 
   430     07A4                     	;# 
   431     07A6                     	;# 
   432     07A7                     	;# 
   433     07A9                     	;# 
   434     07AA                     	;# 
   435     0FE4                     	;# 
   436     0FE5                     	;# 
   437     0FE6                     	;# 
   438     0FE7                     	;# 
   439     0FE8                     	;# 
   440     0FE9                     	;# 
   441     0FEA                     	;# 
   442     0FEB                     	;# 
   443     0FED                     	;# 
   444     0FEE                     	;# 
   445     0FEF                     	;# 
   446     0000                     	;# 
   447     0001                     	;# 
   448     0002                     	;# 
   449     0003                     	;# 
   450     0004                     	;# 
   451     0005                     	;# 
   452     0006                     	;# 
   453     0007                     	;# 
   454     0008                     	;# 
   455     0009                     	;# 
   456     000A                     	;# 
   457     000B                     	;# 
   458     000C                     	;# 
   459     000D                     	;# 
   460     000E                     	;# 
   461     0010                     	;# 
   462     0011                     	;# 
   463     0012                     	;# 
   464     0013                     	;# 
   465     0015                     	;# 
   466     0016                     	;# 
   467     0016                     	;# 
   468     0017                     	;# 
   469     0018                     	;# 
   470     0019                     	;# 
   471     001A                     	;# 
   472     001B                     	;# 
   473     001C                     	;# 
   474     001E                     	;# 
   475     001F                     	;# 
   476     008C                     	;# 
   477     008D                     	;# 
   478     008E                     	;# 
   479     0090                     	;# 
   480     0091                     	;# 
   481     0092                     	;# 
   482     0093                     	;# 
   483     0095                     	;# 
   484     0096                     	;# 
   485     0097                     	;# 
   486     0098                     	;# 
   487     0099                     	;# 
   488     009A                     	;# 
   489     009B                     	;# 
   490     009B                     	;# 
   491     009C                     	;# 
   492     009D                     	;# 
   493     009E                     	;# 
   494     010C                     	;# 
   495     010D                     	;# 
   496     010E                     	;# 
   497     0110                     	;# 
   498     0111                     	;# 
   499     0112                     	;# 
   500     0113                     	;# 
   501     0114                     	;# 
   502     0115                     	;# 
   503     0116                     	;# 
   504     0117                     	;# 
   505     0118                     	;# 
   506     0119                     	;# 
   507     011A                     	;# 
   508     011B                     	;# 
   509     011D                     	;# 
   510     018C                     	;# 
   511     018D                     	;# 
   512     0191                     	;# 
   513     0191                     	;# 
   514     0192                     	;# 
   515     0193                     	;# 
   516     0193                     	;# 
   517     0193                     	;# 
   518     0194                     	;# 
   519     0195                     	;# 
   520     0196                     	;# 
   521     0199                     	;# 
   522     019A                     	;# 
   523     019B                     	;# 
   524     019B                     	;# 
   525     019B                     	;# 
   526     019B                     	;# 
   527     019C                     	;# 
   528     019C                     	;# 
   529     019D                     	;# 
   530     019E                     	;# 
   531     019F                     	;# 
   532     020D                     	;# 
   533     0210                     	;# 
   534     0211                     	;# 
   535     0212                     	;# 
   536     0213                     	;# 
   537     0214                     	;# 
   538     0215                     	;# 
   539     0215                     	;# 
   540     0216                     	;# 
   541     0217                     	;# 
   542     0291                     	;# 
   543     0291                     	;# 
   544     0292                     	;# 
   545     0293                     	;# 
   546     0294                     	;# 
   547     0295                     	;# 
   548     0295                     	;# 
   549     0296                     	;# 
   550     0298                     	;# 
   551     0298                     	;# 
   552     0299                     	;# 
   553     029A                     	;# 
   554     029B                     	;# 
   555     029C                     	;# 
   556     029C                     	;# 
   557     029D                     	;# 
   558     029E                     	;# 
   559     029F                     	;# 
   560     0311                     	;# 
   561     0311                     	;# 
   562     0312                     	;# 
   563     0313                     	;# 
   564     0314                     	;# 
   565     0315                     	;# 
   566     0315                     	;# 
   567     0316                     	;# 
   568     0318                     	;# 
   569     0318                     	;# 
   570     0319                     	;# 
   571     031A                     	;# 
   572     031C                     	;# 
   573     031C                     	;# 
   574     031D                     	;# 
   575     031E                     	;# 
   576     0394                     	;# 
   577     0395                     	;# 
   578     0396                     	;# 
   579     0415                     	;# 
   580     0416                     	;# 
   581     0417                     	;# 
   582     041C                     	;# 
   583     041D                     	;# 
   584     041E                     	;# 
   585     0791                     	;# 
   586     0792                     	;# 
   587     0793                     	;# 
   588     0794                     	;# 
   589     0795                     	;# 
   590     0798                     	;# 
   591     0799                     	;# 
   592     07A0                     	;# 
   593     07A1                     	;# 
   594     07A3                     	;# 
   595     07A4                     	;# 
   596     07A6                     	;# 
   597     07A7                     	;# 
   598     07A9                     	;# 
   599     07AA                     	;# 
   600     0FE4                     	;# 
   601     0FE5                     	;# 
   602     0FE6                     	;# 
   603     0FE7                     	;# 
   604     0FE8                     	;# 
   605     0FE9                     	;# 
   606     0FEA                     	;# 
   607     0FEB                     	;# 
   608     0FED                     	;# 
   609     0FEE                     	;# 
   610     0FEF                     	;# 
   611     0000                     	;# 
   612     0001                     	;# 
   613     0002                     	;# 
   614     0003                     	;# 
   615     0004                     	;# 
   616     0005                     	;# 
   617     0006                     	;# 
   618     0007                     	;# 
   619     0008                     	;# 
   620     0009                     	;# 
   621     000A                     	;# 
   622     000B                     	;# 
   623     000C                     	;# 
   624     000D                     	;# 
   625     000E                     	;# 
   626     0010                     	;# 
   627     0011                     	;# 
   628     0012                     	;# 
   629     0013                     	;# 
   630     0015                     	;# 
   631     0016                     	;# 
   632     0016                     	;# 
   633     0017                     	;# 
   634     0018                     	;# 
   635     0019                     	;# 
   636     001A                     	;# 
   637     001B                     	;# 
   638     001C                     	;# 
   639     001E                     	;# 
   640     001F                     	;# 
   641     008C                     	;# 
   642     008D                     	;# 
   643     008E                     	;# 
   644     0090                     	;# 
   645     0091                     	;# 
   646     0092                     	;# 
   647     0093                     	;# 
   648     0095                     	;# 
   649     0096                     	;# 
   650     0097                     	;# 
   651     0098                     	;# 
   652     0099                     	;# 
   653     009A                     	;# 
   654     009B                     	;# 
   655     009B                     	;# 
   656     009C                     	;# 
   657     009D                     	;# 
   658     009E                     	;# 
   659     010C                     	;# 
   660     010D                     	;# 
   661     010E                     	;# 
   662     0110                     	;# 
   663     0111                     	;# 
   664     0112                     	;# 
   665     0113                     	;# 
   666     0114                     	;# 
   667     0115                     	;# 
   668     0116                     	;# 
   669     0117                     	;# 
   670     0118                     	;# 
   671     0119                     	;# 
   672     011A                     	;# 
   673     011B                     	;# 
   674     011D                     	;# 
   675     018C                     	;# 
   676     018D                     	;# 
   677     0191                     	;# 
   678     0191                     	;# 
   679     0192                     	;# 
   680     0193                     	;# 
   681     0193                     	;# 
   682     0193                     	;# 
   683     0194                     	;# 
   684     0195                     	;# 
   685     0196                     	;# 
   686     0199                     	;# 
   687     019A                     	;# 
   688     019B                     	;# 
   689     019B                     	;# 
   690     019B                     	;# 
   691     019B                     	;# 
   692     019C                     	;# 
   693     019C                     	;# 
   694     019D                     	;# 
   695     019E                     	;# 
   696     019F                     	;# 
   697     020D                     	;# 
   698     0210                     	;# 
   699     0211                     	;# 
   700     0212                     	;# 
   701     0213                     	;# 
   702     0214                     	;# 
   703     0215                     	;# 
   704     0215                     	;# 
   705     0216                     	;# 
   706     0217                     	;# 
   707     0291                     	;# 
   708     0291                     	;# 
   709     0292                     	;# 
   710     0293                     	;# 
   711     0294                     	;# 
   712     0295                     	;# 
   713     0295                     	;# 
   714     0296                     	;# 
   715     0298                     	;# 
   716     0298                     	;# 
   717     0299                     	;# 
   718     029A                     	;# 
   719     029B                     	;# 
   720     029C                     	;# 
   721     029C                     	;# 
   722     029D                     	;# 
   723     029E                     	;# 
   724     029F                     	;# 
   725     0311                     	;# 
   726     0311                     	;# 
   727     0312                     	;# 
   728     0313                     	;# 
   729     0314                     	;# 
   730     0315                     	;# 
   731     0315                     	;# 
   732     0316                     	;# 
   733     0318                     	;# 
   734     0318                     	;# 
   735     0319                     	;# 
   736     031A                     	;# 
   737     031C                     	;# 
   738     031C                     	;# 
   739     031D                     	;# 
   740     031E                     	;# 
   741     0394                     	;# 
   742     0395                     	;# 
   743     0396                     	;# 
   744     0415                     	;# 
   745     0416                     	;# 
   746     0417                     	;# 
   747     041C                     	;# 
   748     041D                     	;# 
   749     041E                     	;# 
   750     0791                     	;# 
   751     0792                     	;# 
   752     0793                     	;# 
   753     0794                     	;# 
   754     0795                     	;# 
   755     0798                     	;# 
   756     0799                     	;# 
   757     07A0                     	;# 
   758     07A1                     	;# 
   759     07A3                     	;# 
   760     07A4                     	;# 
   761     07A6                     	;# 
   762     07A7                     	;# 
   763     07A9                     	;# 
   764     07AA                     	;# 
   765     0FE4                     	;# 
   766     0FE5                     	;# 
   767     0FE6                     	;# 
   768     0FE7                     	;# 
   769     0FE8                     	;# 
   770     0FE9                     	;# 
   771     0FEA                     	;# 
   772     0FEB                     	;# 
   773     0FED                     	;# 
   774     0FEE                     	;# 
   775     0FEF                     	;# 
   776     0000                     	;# 
   777     0001                     	;# 
   778     0002                     	;# 
   779     0003                     	;# 
   780     0004                     	;# 
   781     0005                     	;# 
   782     0006                     	;# 
   783     0007                     	;# 
   784     0008                     	;# 
   785     0009                     	;# 
   786     000A                     	;# 
   787     000B                     	;# 
   788     000C                     	;# 
   789     000D                     	;# 
   790     000E                     	;# 
   791     0010                     	;# 
   792     0011                     	;# 
   793     0012                     	;# 
   794     0013                     	;# 
   795     0015                     	;# 
   796     0016                     	;# 
   797     0016                     	;# 
   798     0017                     	;# 
   799     0018                     	;# 
   800     0019                     	;# 
   801     001A                     	;# 
   802     001B                     	;# 
   803     001C                     	;# 
   804     001E                     	;# 
   805     001F                     	;# 
   806     008C                     	;# 
   807     008D                     	;# 
   808     008E                     	;# 
   809     0090                     	;# 
   810     0091                     	;# 
   811     0092                     	;# 
   812     0093                     	;# 
   813     0095                     	;# 
   814     0096                     	;# 
   815     0097                     	;# 
   816     0098                     	;# 
   817     0099                     	;# 
   818     009A                     	;# 
   819     009B                     	;# 
   820     009B                     	;# 
   821     009C                     	;# 
   822     009D                     	;# 
   823     009E                     	;# 
   824     010C                     	;# 
   825     010D                     	;# 
   826     010E                     	;# 
   827     0110                     	;# 
   828     0111                     	;# 
   829     0112                     	;# 
   830     0113                     	;# 
   831     0114                     	;# 
   832     0115                     	;# 
   833     0116                     	;# 
   834     0117                     	;# 
   835     0118                     	;# 
   836     0119                     	;# 
   837     011A                     	;# 
   838     011B                     	;# 
   839     011D                     	;# 
   840     018C                     	;# 
   841     018D                     	;# 
   842     0191                     	;# 
   843     0191                     	;# 
   844     0192                     	;# 
   845     0193                     	;# 
   846     0193                     	;# 
   847     0193                     	;# 
   848     0194                     	;# 
   849     0195                     	;# 
   850     0196                     	;# 
   851     0199                     	;# 
   852     019A                     	;# 
   853     019B                     	;# 
   854     019B                     	;# 
   855     019B                     	;# 
   856     019B                     	;# 
   857     019C                     	;# 
   858     019C                     	;# 
   859     019D                     	;# 
   860     019E                     	;# 
   861     019F                     	;# 
   862     020D                     	;# 
   863     0210                     	;# 
   864     0211                     	;# 
   865     0212                     	;# 
   866     0213                     	;# 
   867     0214                     	;# 
   868     0215                     	;# 
   869     0215                     	;# 
   870     0216                     	;# 
   871     0217                     	;# 
   872     0291                     	;# 
   873     0291                     	;# 
   874     0292                     	;# 
   875     0293                     	;# 
   876     0294                     	;# 
   877     0295                     	;# 
   878     0295                     	;# 
   879     0296                     	;# 
   880     0298                     	;# 
   881     0298                     	;# 
   882     0299                     	;# 
   883     029A                     	;# 
   884     029B                     	;# 
   885     029C                     	;# 
   886     029C                     	;# 
   887     029D                     	;# 
   888     029E                     	;# 
   889     029F                     	;# 
   890     0311                     	;# 
   891     0311                     	;# 
   892     0312                     	;# 
   893     0313                     	;# 
   894     0314                     	;# 
   895     0315                     	;# 
   896     0315                     	;# 
   897     0316                     	;# 
   898     0318                     	;# 
   899     0318                     	;# 
   900     0319                     	;# 
   901     031A                     	;# 
   902     031C                     	;# 
   903     031C                     	;# 
   904     031D                     	;# 
   905     031E                     	;# 
   906     0394                     	;# 
   907     0395                     	;# 
   908     0396                     	;# 
   909     0415                     	;# 
   910     0416                     	;# 
   911     0417                     	;# 
   912     041C                     	;# 
   913     041D                     	;# 
   914     041E                     	;# 
   915     0791                     	;# 
   916     0792                     	;# 
   917     0793                     	;# 
   918     0794                     	;# 
   919     0795                     	;# 
   920     0798                     	;# 
   921     0799                     	;# 
   922     07A0                     	;# 
   923     07A1                     	;# 
   924     07A3                     	;# 
   925     07A4                     	;# 
   926     07A6                     	;# 
   927     07A7                     	;# 
   928     07A9                     	;# 
   929     07AA                     	;# 
   930     0FE4                     	;# 
   931     0FE5                     	;# 
   932     0FE6                     	;# 
   933     0FE7                     	;# 
   934     0FE8                     	;# 
   935     0FE9                     	;# 
   936     0FEA                     	;# 
   937     0FEB                     	;# 
   938     0FED                     	;# 
   939     0FEE                     	;# 
   940     0FEF                     	;# 
   941     0000                     	;# 
   942     0001                     	;# 
   943     0002                     	;# 
   944     0003                     	;# 
   945     0004                     	;# 
   946     0005                     	;# 
   947     0006                     	;# 
   948     0007                     	;# 
   949     0008                     	;# 
   950     0009                     	;# 
   951     000A                     	;# 
   952     000B                     	;# 
   953     000C                     	;# 
   954     000D                     	;# 
   955     000E                     	;# 
   956     0010                     	;# 
   957     0011                     	;# 
   958     0012                     	;# 
   959     0013                     	;# 
   960     0015                     	;# 
   961     0016                     	;# 
   962     0016                     	;# 
   963     0017                     	;# 
   964     0018                     	;# 
   965     0019                     	;# 
   966     001A                     	;# 
   967     001B                     	;# 
   968     001C                     	;# 
   969     001E                     	;# 
   970     001F                     	;# 
   971     008C                     	;# 
   972     008D                     	;# 
   973     008E                     	;# 
   974     0090                     	;# 
   975     0091                     	;# 
   976     0092                     	;# 
   977     0093                     	;# 
   978     0095                     	;# 
   979     0096                     	;# 
   980     0097                     	;# 
   981     0098                     	;# 
   982     0099                     	;# 
   983     009A                     	;# 
   984     009B                     	;# 
   985     009B                     	;# 
   986     009C                     	;# 
   987     009D                     	;# 
   988     009E                     	;# 
   989     010C                     	;# 
   990     010D                     	;# 
   991     010E                     	;# 
   992     0110                     	;# 
   993     0111                     	;# 
   994     0112                     	;# 
   995     0113                     	;# 
   996     0114                     	;# 
   997     0115                     	;# 
   998     0116                     	;# 
   999     0117                     	;# 
  1000     0118                     	;# 
  1001     0119                     	;# 
  1002     011A                     	;# 
  1003     011B                     	;# 
  1004     011D                     	;# 
  1005     018C                     	;# 
  1006     018D                     	;# 
  1007     0191                     	;# 
  1008     0191                     	;# 
  1009     0192                     	;# 
  1010     0193                     	;# 
  1011     0193                     	;# 
  1012     0193                     	;# 
  1013     0194                     	;# 
  1014     0195                     	;# 
  1015     0196                     	;# 
  1016     0199                     	;# 
  1017     019A                     	;# 
  1018     019B                     	;# 
  1019     019B                     	;# 
  1020     019B                     	;# 
  1021     019B                     	;# 
  1022     019C                     	;# 
  1023     019C                     	;# 
  1024     019D                     	;# 
  1025     019E                     	;# 
  1026     019F                     	;# 
  1027     020D                     	;# 
  1028     0210                     	;# 
  1029     0211                     	;# 
  1030     0212                     	;# 
  1031     0213                     	;# 
  1032     0214                     	;# 
  1033     0215                     	;# 
  1034     0215                     	;# 
  1035     0216                     	;# 
  1036     0217                     	;# 
  1037     0291                     	;# 
  1038     0291                     	;# 
  1039     0292                     	;# 
  1040     0293                     	;# 
  1041     0294                     	;# 
  1042     0295                     	;# 
  1043     0295                     	;# 
  1044     0296                     	;# 
  1045     0298                     	;# 
  1046     0298                     	;# 
  1047     0299                     	;# 
  1048     029A                     	;# 
  1049     029B                     	;# 
  1050     029C                     	;# 
  1051     029C                     	;# 
  1052     029D                     	;# 
  1053     029E                     	;# 
  1054     029F                     	;# 
  1055     0311                     	;# 
  1056     0311                     	;# 
  1057     0312                     	;# 
  1058     0313                     	;# 
  1059     0314                     	;# 
  1060     0315                     	;# 
  1061     0315                     	;# 
  1062     0316                     	;# 
  1063     0318                     	;# 
  1064     0318                     	;# 
  1065     0319                     	;# 
  1066     031A                     	;# 
  1067     031C                     	;# 
  1068     031C                     	;# 
  1069     031D                     	;# 
  1070     031E                     	;# 
  1071     0394                     	;# 
  1072     0395                     	;# 
  1073     0396                     	;# 
  1074     0415                     	;# 
  1075     0416                     	;# 
  1076     0417                     	;# 
  1077     041C                     	;# 
  1078     041D                     	;# 
  1079     041E                     	;# 
  1080     0791                     	;# 
  1081     0792                     	;# 
  1082     0793                     	;# 
  1083     0794                     	;# 
  1084     0795                     	;# 
  1085     0798                     	;# 
  1086     0799                     	;# 
  1087     07A0                     	;# 
  1088     07A1                     	;# 
  1089     07A3                     	;# 
  1090     07A4                     	;# 
  1091     07A6                     	;# 
  1092     07A7                     	;# 
  1093     07A9                     	;# 
  1094     07AA                     	;# 
  1095     0FE4                     	;# 
  1096     0FE5                     	;# 
  1097     0FE6                     	;# 
  1098     0FE7                     	;# 
  1099     0FE8                     	;# 
  1100     0FE9                     	;# 
  1101     0FEA                     	;# 
  1102     0FEB                     	;# 
  1103     0FED                     	;# 
  1104     0FEE                     	;# 
  1105     0FEF                     	;# 
  1106     0000                     	;# 
  1107     0001                     	;# 
  1108     0002                     	;# 
  1109     0003                     	;# 
  1110     0004                     	;# 
  1111     0005                     	;# 
  1112     0006                     	;# 
  1113     0007                     	;# 
  1114     0008                     	;# 
  1115     0009                     	;# 
  1116     000A                     	;# 
  1117     000B                     	;# 
  1118     000C                     	;# 
  1119     000D                     	;# 
  1120     000E                     	;# 
  1121     0010                     	;# 
  1122     0011                     	;# 
  1123     0012                     	;# 
  1124     0013                     	;# 
  1125     0015                     	;# 
  1126     0016                     	;# 
  1127     0016                     	;# 
  1128     0017                     	;# 
  1129     0018                     	;# 
  1130     0019                     	;# 
  1131     001A                     	;# 
  1132     001B                     	;# 
  1133     001C                     	;# 
  1134     001E                     	;# 
  1135     001F                     	;# 
  1136     008C                     	;# 
  1137     008D                     	;# 
  1138     008E                     	;# 
  1139     0090                     	;# 
  1140     0091                     	;# 
  1141     0092                     	;# 
  1142     0093                     	;# 
  1143     0095                     	;# 
  1144     0096                     	;# 
  1145     0097                     	;# 
  1146     0098                     	;# 
  1147     0099                     	;# 
  1148     009A                     	;# 
  1149     009B                     	;# 
  1150     009B                     	;# 
  1151     009C                     	;# 
  1152     009D                     	;# 
  1153     009E                     	;# 
  1154     010C                     	;# 
  1155     010D                     	;# 
  1156     010E                     	;# 
  1157     0110                     	;# 
  1158     0111                     	;# 
  1159     0112                     	;# 
  1160     0113                     	;# 
  1161     0114                     	;# 
  1162     0115                     	;# 
  1163     0116                     	;# 
  1164     0117                     	;# 
  1165     0118                     	;# 
  1166     0119                     	;# 
  1167     011A                     	;# 
  1168     011B                     	;# 
  1169     011D                     	;# 
  1170     018C                     	;# 
  1171     018D                     	;# 
  1172     0191                     	;# 
  1173     0191                     	;# 
  1174     0192                     	;# 
  1175     0193                     	;# 
  1176     0193                     	;# 
  1177     0193                     	;# 
  1178     0194                     	;# 
  1179     0195                     	;# 
  1180     0196                     	;# 
  1181     0199                     	;# 
  1182     019A                     	;# 
  1183     019B                     	;# 
  1184     019B                     	;# 
  1185     019B                     	;# 
  1186     019B                     	;# 
  1187     019C                     	;# 
  1188     019C                     	;# 
  1189     019D                     	;# 
  1190     019E                     	;# 
  1191     019F                     	;# 
  1192     020D                     	;# 
  1193     0210                     	;# 
  1194     0211                     	;# 
  1195     0212                     	;# 
  1196     0213                     	;# 
  1197     0214                     	;# 
  1198     0215                     	;# 
  1199     0215                     	;# 
  1200     0216                     	;# 
  1201     0217                     	;# 
  1202     0291                     	;# 
  1203     0291                     	;# 
  1204     0292                     	;# 
  1205     0293                     	;# 
  1206     0294                     	;# 
  1207     0295                     	;# 
  1208     0295                     	;# 
  1209     0296                     	;# 
  1210     0298                     	;# 
  1211     0298                     	;# 
  1212     0299                     	;# 
  1213     029A                     	;# 
  1214     029B                     	;# 
  1215     029C                     	;# 
  1216     029C                     	;# 
  1217     029D                     	;# 
  1218     029E                     	;# 
  1219     029F                     	;# 
  1220     0311                     	;# 
  1221     0311                     	;# 
  1222     0312                     	;# 
  1223     0313                     	;# 
  1224     0314                     	;# 
  1225     0315                     	;# 
  1226     0315                     	;# 
  1227     0316                     	;# 
  1228     0318                     	;# 
  1229     0318                     	;# 
  1230     0319                     	;# 
  1231     031A                     	;# 
  1232     031C                     	;# 
  1233     031C                     	;# 
  1234     031D                     	;# 
  1235     031E                     	;# 
  1236     0394                     	;# 
  1237     0395                     	;# 
  1238     0396                     	;# 
  1239     0415                     	;# 
  1240     0416                     	;# 
  1241     0417                     	;# 
  1242     041C                     	;# 
  1243     041D                     	;# 
  1244     041E                     	;# 
  1245     0791                     	;# 
  1246     0792                     	;# 
  1247     0793                     	;# 
  1248     0794                     	;# 
  1249     0795                     	;# 
  1250     0798                     	;# 
  1251     0799                     	;# 
  1252     07A0                     	;# 
  1253     07A1                     	;# 
  1254     07A3                     	;# 
  1255     07A4                     	;# 
  1256     07A6                     	;# 
  1257     07A7                     	;# 
  1258     07A9                     	;# 
  1259     07AA                     	;# 
  1260     0FE4                     	;# 
  1261     0FE5                     	;# 
  1262     0FE6                     	;# 
  1263     0FE7                     	;# 
  1264     0FE8                     	;# 
  1265     0FE9                     	;# 
  1266     0FEA                     	;# 
  1267     0FEB                     	;# 
  1268     0FED                     	;# 
  1269     0FEE                     	;# 
  1270     0FEF                     	;# 
  1271     0000                     	;# 
  1272     0001                     	;# 
  1273     0002                     	;# 
  1274     0003                     	;# 
  1275     0004                     	;# 
  1276     0005                     	;# 
  1277     0006                     	;# 
  1278     0007                     	;# 
  1279     0008                     	;# 
  1280     0009                     	;# 
  1281     000A                     	;# 
  1282     000B                     	;# 
  1283     000C                     	;# 
  1284     000D                     	;# 
  1285     000E                     	;# 
  1286     0010                     	;# 
  1287     0011                     	;# 
  1288     0012                     	;# 
  1289     0013                     	;# 
  1290     0015                     	;# 
  1291     0016                     	;# 
  1292     0016                     	;# 
  1293     0017                     	;# 
  1294     0018                     	;# 
  1295     0019                     	;# 
  1296     001A                     	;# 
  1297     001B                     	;# 
  1298     001C                     	;# 
  1299     001E                     	;# 
  1300     001F                     	;# 
  1301     008C                     	;# 
  1302     008D                     	;# 
  1303     008E                     	;# 
  1304     0090                     	;# 
  1305     0091                     	;# 
  1306     0092                     	;# 
  1307     0093                     	;# 
  1308     0095                     	;# 
  1309     0096                     	;# 
  1310     0097                     	;# 
  1311     0098                     	;# 
  1312     0099                     	;# 
  1313     009A                     	;# 
  1314     009B                     	;# 
  1315     009B                     	;# 
  1316     009C                     	;# 
  1317     009D                     	;# 
  1318     009E                     	;# 
  1319     010C                     	;# 
  1320     010D                     	;# 
  1321     010E                     	;# 
  1322     0110                     	;# 
  1323     0111                     	;# 
  1324     0112                     	;# 
  1325     0113                     	;# 
  1326     0114                     	;# 
  1327     0115                     	;# 
  1328     0116                     	;# 
  1329     0117                     	;# 
  1330     0118                     	;# 
  1331     0119                     	;# 
  1332     011A                     	;# 
  1333     011B                     	;# 
  1334     011D                     	;# 
  1335     018C                     	;# 
  1336     018D                     	;# 
  1337     0191                     	;# 
  1338     0191                     	;# 
  1339     0192                     	;# 
  1340     0193                     	;# 
  1341     0193                     	;# 
  1342     0193                     	;# 
  1343     0194                     	;# 
  1344     0195                     	;# 
  1345     0196                     	;# 
  1346     0199                     	;# 
  1347     019A                     	;# 
  1348     019B                     	;# 
  1349     019B                     	;# 
  1350     019B                     	;# 
  1351     019B                     	;# 
  1352     019C                     	;# 
  1353     019C                     	;# 
  1354     019D                     	;# 
  1355     019E                     	;# 
  1356     019F                     	;# 
  1357     020D                     	;# 
  1358     0210                     	;# 
  1359     0211                     	;# 
  1360     0212                     	;# 
  1361     0213                     	;# 
  1362     0214                     	;# 
  1363     0215                     	;# 
  1364     0215                     	;# 
  1365     0216                     	;# 
  1366     0217                     	;# 
  1367     0291                     	;# 
  1368     0291                     	;# 
  1369     0292                     	;# 
  1370     0293                     	;# 
  1371     0294                     	;# 
  1372     0295                     	;# 
  1373     0295                     	;# 
  1374     0296                     	;# 
  1375     0298                     	;# 
  1376     0298                     	;# 
  1377     0299                     	;# 
  1378     029A                     	;# 
  1379     029B                     	;# 
  1380     029C                     	;# 
  1381     029C                     	;# 
  1382     029D                     	;# 
  1383     029E                     	;# 
  1384     029F                     	;# 
  1385     0311                     	;# 
  1386     0311                     	;# 
  1387     0312                     	;# 
  1388     0313                     	;# 
  1389     0314                     	;# 
  1390     0315                     	;# 
  1391     0315                     	;# 
  1392     0316                     	;# 
  1393     0318                     	;# 
  1394     0318                     	;# 
  1395     0319                     	;# 
  1396     031A                     	;# 
  1397     031C                     	;# 
  1398     031C                     	;# 
  1399     031D                     	;# 
  1400     031E                     	;# 
  1401     0394                     	;# 
  1402     0395                     	;# 
  1403     0396                     	;# 
  1404     0415                     	;# 
  1405     0416                     	;# 
  1406     0417                     	;# 
  1407     041C                     	;# 
  1408     041D                     	;# 
  1409     041E                     	;# 
  1410     0791                     	;# 
  1411     0792                     	;# 
  1412     0793                     	;# 
  1413     0794                     	;# 
  1414     0795                     	;# 
  1415     0798                     	;# 
  1416     0799                     	;# 
  1417     07A0                     	;# 
  1418     07A1                     	;# 
  1419     07A3                     	;# 
  1420     07A4                     	;# 
  1421     07A6                     	;# 
  1422     07A7                     	;# 
  1423     07A9                     	;# 
  1424     07AA                     	;# 
  1425     0FE4                     	;# 
  1426     0FE5                     	;# 
  1427     0FE6                     	;# 
  1428     0FE7                     	;# 
  1429     0FE8                     	;# 
  1430     0FE9                     	;# 
  1431     0FEA                     	;# 
  1432     0FEB                     	;# 
  1433     0FED                     	;# 
  1434     0FEE                     	;# 
  1435     0FEF                     	;# 
  1436     0000                     	;# 
  1437     0001                     	;# 
  1438     0002                     	;# 
  1439     0003                     	;# 
  1440     0004                     	;# 
  1441     0005                     	;# 
  1442     0006                     	;# 
  1443     0007                     	;# 
  1444     0008                     	;# 
  1445     0009                     	;# 
  1446     000A                     	;# 
  1447     000B                     	;# 
  1448     000C                     	;# 
  1449     000D                     	;# 
  1450     000E                     	;# 
  1451     0010                     	;# 
  1452     0011                     	;# 
  1453     0012                     	;# 
  1454     0013                     	;# 
  1455     0015                     	;# 
  1456     0016                     	;# 
  1457     0016                     	;# 
  1458     0017                     	;# 
  1459     0018                     	;# 
  1460     0019                     	;# 
  1461     001A                     	;# 
  1462     001B                     	;# 
  1463     001C                     	;# 
  1464     001E                     	;# 
  1465     001F                     	;# 
  1466     008C                     	;# 
  1467     008D                     	;# 
  1468     008E                     	;# 
  1469     0090                     	;# 
  1470     0091                     	;# 
  1471     0092                     	;# 
  1472     0093                     	;# 
  1473     0095                     	;# 
  1474     0096                     	;# 
  1475     0097                     	;# 
  1476     0098                     	;# 
  1477     0099                     	;# 
  1478     009A                     	;# 
  1479     009B                     	;# 
  1480     009B                     	;# 
  1481     009C                     	;# 
  1482     009D                     	;# 
  1483     009E                     	;# 
  1484     010C                     	;# 
  1485     010D                     	;# 
  1486     010E                     	;# 
  1487     0110                     	;# 
  1488     0111                     	;# 
  1489     0112                     	;# 
  1490     0113                     	;# 
  1491     0114                     	;# 
  1492     0115                     	;# 
  1493     0116                     	;# 
  1494     0117                     	;# 
  1495     0118                     	;# 
  1496     0119                     	;# 
  1497     011A                     	;# 
  1498     011B                     	;# 
  1499     011D                     	;# 
  1500     018C                     	;# 
  1501     018D                     	;# 
  1502     0191                     	;# 
  1503     0191                     	;# 
  1504     0192                     	;# 
  1505     0193                     	;# 
  1506     0193                     	;# 
  1507     0193                     	;# 
  1508     0194                     	;# 
  1509     0195                     	;# 
  1510     0196                     	;# 
  1511     0199                     	;# 
  1512     019A                     	;# 
  1513     019B                     	;# 
  1514     019B                     	;# 
  1515     019B                     	;# 
  1516     019B                     	;# 
  1517     019C                     	;# 
  1518     019C                     	;# 
  1519     019D                     	;# 
  1520     019E                     	;# 
  1521     019F                     	;# 
  1522     020D                     	;# 
  1523     0210                     	;# 
  1524     0211                     	;# 
  1525     0212                     	;# 
  1526     0213                     	;# 
  1527     0214                     	;# 
  1528     0215                     	;# 
  1529     0215                     	;# 
  1530     0216                     	;# 
  1531     0217                     	;# 
  1532     0291                     	;# 
  1533     0291                     	;# 
  1534     0292                     	;# 
  1535     0293                     	;# 
  1536     0294                     	;# 
  1537     0295                     	;# 
  1538     0295                     	;# 
  1539     0296                     	;# 
  1540     0298                     	;# 
  1541     0298                     	;# 
  1542     0299                     	;# 
  1543     029A                     	;# 
  1544     029B                     	;# 
  1545     029C                     	;# 
  1546     029C                     	;# 
  1547     029D                     	;# 
  1548     029E                     	;# 
  1549     029F                     	;# 
  1550     0311                     	;# 
  1551     0311                     	;# 
  1552     0312                     	;# 
  1553     0313                     	;# 
  1554     0314                     	;# 
  1555     0315                     	;# 
  1556     0315                     	;# 
  1557     0316                     	;# 
  1558     0318                     	;# 
  1559     0318                     	;# 
  1560     0319                     	;# 
  1561     031A                     	;# 
  1562     031C                     	;# 
  1563     031C                     	;# 
  1564     031D                     	;# 
  1565     031E                     	;# 
  1566     0394                     	;# 
  1567     0395                     	;# 
  1568     0396                     	;# 
  1569     0415                     	;# 
  1570     0416                     	;# 
  1571     0417                     	;# 
  1572     041C                     	;# 
  1573     041D                     	;# 
  1574     041E                     	;# 
  1575     0791                     	;# 
  1576     0792                     	;# 
  1577     0793                     	;# 
  1578     0794                     	;# 
  1579     0795                     	;# 
  1580     0798                     	;# 
  1581     0799                     	;# 
  1582     07A0                     	;# 
  1583     07A1                     	;# 
  1584     07A3                     	;# 
  1585     07A4                     	;# 
  1586     07A6                     	;# 
  1587     07A7                     	;# 
  1588     07A9                     	;# 
  1589     07AA                     	;# 
  1590     0FE4                     	;# 
  1591     0FE5                     	;# 
  1592     0FE6                     	;# 
  1593     0FE7                     	;# 
  1594     0FE8                     	;# 
  1595     0FE9                     	;# 
  1596     0FEA                     	;# 
  1597     0FEB                     	;# 
  1598     0FED                     	;# 
  1599     0FEE                     	;# 
  1600     0FEF                     	;# 
  1601                           
  1602                           	psect	idataBANK0
  1603     06D0                     __pidataBANK0:
  1604                           
  1605                           ;initializer for _LIN_timeout
  1606     06D0  340F               	retlw	15
  1607                           
  1608                           	psect	stringtext1
  1609     068B                     __pstringtext1:
  1610     068B                     _scheduleTable:
  1611     068B  3401               	retlw	1
  1612     068C  3401               	retlw	1
  1613     068D  3408               	retlw	8
  1614     068E  34A8               	retlw	low (_SW_STATE_Data| 0)
  1615     068F                     __end_of_scheduleTable:
  1616     0011                     _PIR1bits	set	17
  1617     000B                     _INTCONbits	set	11
  1618     0015                     _TMR0	set	21
  1619     0097                     _WDTCON	set	151
  1620     0098                     _OSCTUNE	set	152
  1621     0099                     _OSCCON	set	153
  1622     0095                     _OPTION_REG	set	149
  1623     0095                     _OPTION_REGbits	set	149
  1624     008E                     _TRISC	set	142
  1625     008D                     _TRISB	set	141
  1626     008C                     _TRISA	set	140
  1627     0090                     _TRISE	set	144
  1628     0091                     _PIE1bits	set	145
  1629     04D6                     _PLLR	set	1238
  1630     0116                     _BORCON	set	278
  1631     011D                     _APFCON	set	285
  1632     010E                     _LATC	set	270
  1633     010D                     _LATB	set	269
  1634     010C                     _LATA	set	268
  1635     0110                     _LATE	set	272
  1636     010D                     _LATBbits	set	269
  1637     019F                     _BAUDCONbits	set	415
  1638     0199                     _RCREG	set	409
  1639     019A                     _TXREG	set	410
  1640     019C                     _SPBRGH	set	412
  1641     019B                     _SPBRGL	set	411
  1642     019E                     _TXSTA	set	414
  1643     019D                     _RCSTA	set	413
  1644     019F                     _BAUDCON	set	415
  1645     018C                     _ANSELA	set	396
  1646     018D                     _ANSELB	set	397
  1647     019D                     _RCSTAbits	set	413
  1648     019E                     _TXSTAbits	set	414
  1649     020D                     _WPUB	set	525
  1650     0210                     _WPUE	set	528
  1651                           
  1652                           	psect	cinit
  1653     003A                     start_initialization:	
  1654                           ; #config settings
  1655                           
  1656     003A                     __initialization:
  1657                           
  1658                           ; Initialize objects allocated to BANK0
  1659     003A  3186  26D0  3180   	fcall	__pidataBANK0	;fetch initializer
  1660     003D  00E9               	movwf	__pdataBANK0& (0+127)
  1661                           
  1662                           ; Clear objects allocated to COMMON
  1663     003E  01FB               	clrf	__pbssCOMMON& (0+127)
  1664     003F  01FC               	clrf	(__pbssCOMMON+1)& (0+127)
  1665                           
  1666                           ; Clear objects allocated to BANK0
  1667     0040  3020               	movlw	low __pbssBANK0
  1668     0041  0084               	movwf	4
  1669     0042  3000               	movlw	high __pbssBANK0
  1670     0043  0085               	movwf	5
  1671     0044  303C               	movlw	60
  1672     0045  3186  264D  3180   	fcall	clear_ram0
  1673                           
  1674                           ; Clear objects allocated to BANK1
  1675     0048  30A0               	movlw	low __pbssBANK1
  1676     0049  0084               	movwf	4
  1677     004A  3000               	movlw	high __pbssBANK1
  1678     004B  0085               	movwf	5
  1679     004C  3010               	movlw	16
  1680     004D  3186  264D  3180   	fcall	clear_ram0
  1681     0050                     end_of_initialization:	
  1682                           ;End of C runtime variable initialization code
  1683                           
  1684     0050                     __end_of__initialization:
  1685     0050  107E               	bcf	int$flags,0	;clear compiler interrupt flag (level 1)
  1686     0051  0020               	movlb	0
  1687     0052  3185  2DFC         	ljmp	_main	;jump to C main() function
  1688                           
  1689                           	psect	bssCOMMON
  1690     007B                     __pbssCOMMON:
  1691     007B                     _eusartRxTail:
  1692     007B                     	ds	1
  1693     007C                     _eusartRxHead:
  1694     007C                     	ds	1
  1695                           
  1696                           	psect	bssBANK0
  1697     0020                     __pbssBANK0:
  1698     0020                     _eusartRxStatusBuffer:
  1699     0020                     	ds	8
  1700     0028                     _eusartTxBuffer:
  1701     0028                     	ds	8
  1702     0030                     _TMR0_InterruptHandler:
  1703     0030                     	ds	2
  1704     0032                     _EUSART_ErrorHandler:
  1705     0032                     	ds	2
  1706     0034                     _EUSART_OverrunErrorHandler:
  1707     0034                     	ds	2
  1708     0036                     _EUSART_FramingErrorHandler:
  1709     0036                     	ds	2
  1710     0038                     _EUSART_RxDefaultInterruptHandler:
  1711     0038                     	ds	2
  1712     003A                     _EUSART_TxDefaultInterruptHandler:
  1713     003A                     	ds	2
  1714     003C                     _LIN_rxCommand:
  1715     003C                     	ds	2
  1716     003E                     _LIN_processData:
  1717     003E                     	ds	2
  1718     0040                     _timer0ReloadVal:
  1719     0040                     	ds	1
  1720     0041                     _eusartRxLastError:
  1721     0041                     	ds	1
  1722     0042                     _eusartRxCount:
  1723     0042                     	ds	1
  1724     0043                     _eusartTxBufferRemaining:
  1725     0043                     	ds	1
  1726     0044                     _eusartTxTail:
  1727     0044                     	ds	1
  1728     0045                     _eusartTxHead:
  1729     0045                     	ds	1
  1730     0046                     LIN_handler@rxDataIndex:
  1731     0046                     	ds	1
  1732     0047                     LIN_handler@LIN_rxState:
  1733     0047                     	ds	1
  1734     0048                     _CountCallBack:
  1735     0048                     	ds	1
  1736     0049                     _LIN_timerRunning:
  1737     0049                     	ds	1
  1738     004A                     _LIN_rxCommandLength:
  1739     004A                     	ds	1
  1740     004B                     _LIN_rxInProgress:
  1741     004B                     	ds	1
  1742     004C                     _lampFlags:
  1743     004C                     	ds	1
  1744     004D                     _fLock:
  1745     004D                     	ds	1
  1746     004E                     _lampState:
  1747     004E                     	ds	1
  1748     004F                     _LIN_packet:
  1749     004F                     	ds	13
  1750                           
  1751                           	psect	dataBANK0
  1752     0069                     __pdataBANK0:
  1753     0069                     _LIN_timeout:
  1754     0069                     	ds	1
  1755                           
  1756                           	psect	bssBANK1
  1757     00A0                     __pbssBANK1:
  1758     00A0                     _eusartRxBuffer:
  1759     00A0                     	ds	8
  1760     00A8                     _SW_STATE_Data:
  1761     00A8                     	ds	8
  1762                           
  1763                           	psect	clrtext
  1764     064D                     clear_ram0:	
  1765                           ;	Called with FSR0 containing the base address, and
  1766                           ;	WREG with the size to clear
  1767                           
  1768     064D  0064               	clrwdt	;clear the watchdog before getting into this loop
  1769     064E                     clrloop0:
  1770     064E  0180               	clrf	0	;clear RAM location pointed to by FSR
  1771     064F  3101               	addfsr 0,1
  1772     0650  0B89               	decfsz	9,f	;Have we reached the end of clearing yet?
  1773     0651  2E4E               	goto	clrloop0	;have we reached the end yet?
  1774     0652  3400               	retlw	0	;all done for this memory range, return
  1775                           
  1776                           	psect	cstackCOMMON
  1777     0070                     __pcstackCOMMON:
  1778     0070                     ?_processLIN:
  1779     0070                     ?_LIN_getPacket:	
  1780                           ; 1 bytes @ 0x0
  1781                           
  1782     0070                     ?_LIN_stopTimer:	
  1783                           ; 1 bytes @ 0x0
  1784                           
  1785     0070                     ?_LIN_enableRx:	
  1786                           ; 1 bytes @ 0x0
  1787                           
  1788     0070                     ?_LIN_setTimerHandler:	
  1789                           ; 1 bytes @ 0x0
  1790                           
  1791     0070                     ?_EUSART_is_rx_ready:	
  1792                           ; 1 bytes @ 0x0
  1793                           
  1794     0070                     ?_LIN_startTimer:	
  1795                           ; 1 bytes @ 0x0
  1796                           
  1797     0070                     ?_LIN_breakCheck:	
  1798                           ; 1 bytes @ 0x0
  1799                           
  1800     0070                     ?_EUSART_Read:	
  1801                           ; 1 bytes @ 0x0
  1802                           
  1803     0070                     ?_LIN_checkPID:	
  1804                           ; 1 bytes @ 0x0
  1805                           
  1806     0070                     ?_LIN_disableRx:	
  1807                           ; 1 bytes @ 0x0
  1808                           
  1809     0070                     ?_EUSART_Write:	
  1810                           ; 1 bytes @ 0x0
  1811                           
  1812     0070                     ?_LIN_calcParity:	
  1813                           ; 1 bytes @ 0x0
  1814                           
  1815     0070                     ?_TMR0_Reload:	
  1816                           ; 1 bytes @ 0x0
  1817                           
  1818     0070                     ?_EUSART_get_last_status:	
  1819                           ; 1 bytes @ 0x0
  1820                           
  1821     0070                     ?_EUSART_Receive_ISR:	
  1822                           ; 1 bytes @ 0x0
  1823                           
  1824     0070                     ?_EUSART_Transmit_ISR:	
  1825                           ; 1 bytes @ 0x0
  1826                           
  1827     0070                     ??_EUSART_Transmit_ISR:	
  1828                           ; 1 bytes @ 0x0
  1829                           
  1830     0070                     ?_EUSART_DefaultFramingErrorHandler:	
  1831                           ; 1 bytes @ 0x0
  1832                           
  1833     0070                     ??_EUSART_DefaultFramingErrorHandler:	
  1834                           ; 1 bytes @ 0x0
  1835                           
  1836     0070                     ?_EUSART_DefaultOverrunErrorHandler:	
  1837                           ; 1 bytes @ 0x0
  1838                           
  1839     0070                     ??_EUSART_DefaultOverrunErrorHandler:	
  1840                           ; 1 bytes @ 0x0
  1841                           
  1842     0070                     ?_EUSART_DefaultErrorHandler:	
  1843                           ; 1 bytes @ 0x0
  1844                           
  1845     0070                     ?_EUSART_is_tx_ready:	
  1846                           ; 1 bytes @ 0x0
  1847                           
  1848     0070                     ?_EUSART_is_tx_done:	
  1849                           ; 1 bytes @ 0x0
  1850                           
  1851     0070                     ?_EUSART_RxDataHandler:	
  1852                           ; 1 bytes @ 0x0
  1853                           
  1854     0070                     ??_EUSART_RxDataHandler:	
  1855                           ; 1 bytes @ 0x0
  1856                           
  1857     0070                     ?_TMR0_WriteTimer:	
  1858                           ; 1 bytes @ 0x0
  1859                           
  1860     0070                     ?_TMR0_ReadTimer:	
  1861                           ; 1 bytes @ 0x0
  1862                           
  1863     0070                     ?_TMR0_DefaultInterruptHandler:	
  1864                           ; 1 bytes @ 0x0
  1865                           
  1866     0070                     ??_TMR0_DefaultInterruptHandler:	
  1867                           ; 1 bytes @ 0x0
  1868                           
  1869     0070                     ?_OSCILLATOR_Initialize:	
  1870                           ; 1 bytes @ 0x0
  1871                           
  1872     0070                     ?_WDT_Initialize:	
  1873                           ; 1 bytes @ 0x0
  1874                           
  1875     0070                     ?_POS_ON:	
  1876                           ; 1 bytes @ 0x0
  1877                           
  1878     0070                     ?_POS_OFF:	
  1879                           ; 1 bytes @ 0x0
  1880                           
  1881     0070                     ?_DRL_ON:	
  1882                           ; 1 bytes @ 0x0
  1883                           
  1884     0070                     ?_DRL_OFF:	
  1885                           ; 1 bytes @ 0x0
  1886                           
  1887     0070                     ?_LOBEAM_ON:	
  1888                           ; 1 bytes @ 0x0
  1889                           
  1890     0070                     ?_LOBEAM_OFF:	
  1891                           ; 1 bytes @ 0x0
  1892                           
  1893     0070                     ?_HIBEAM_ON:	
  1894                           ; 1 bytes @ 0x0
  1895                           
  1896     0070                     ?_HIBEAM_OFF:	
  1897                           ; 1 bytes @ 0x0
  1898                           
  1899     0070                     ?_LEFT_ON:	
  1900                           ; 1 bytes @ 0x0
  1901                           
  1902     0070                     ?_LEFT_OFF:	
  1903                           ; 1 bytes @ 0x0
  1904                           
  1905     0070                     ?_RIGHT_ON:	
  1906                           ; 1 bytes @ 0x0
  1907                           
  1908     0070                     ?_RIGHT_OFF:	
  1909                           ; 1 bytes @ 0x0
  1910                           
  1911     0070                     ?_LIN_Slave_Initialize:	
  1912                           ; 1 bytes @ 0x0
  1913                           
  1914     0070                     ?_LIN_queuePacket:	
  1915                           ; 1 bytes @ 0x0
  1916                           
  1917     0070                     ?_LIN_handler:	
  1918                           ; 1 bytes @ 0x0
  1919                           
  1920     0070                     ?_LIN_timerHandler:	
  1921                           ; 1 bytes @ 0x0
  1922                           
  1923     0070                     ??_LIN_timerHandler:	
  1924                           ; 1 bytes @ 0x0
  1925                           
  1926     0070                     ?_PIN_MANAGER_Initialize:	
  1927                           ; 1 bytes @ 0x0
  1928                           
  1929     0070                     ?_EUSART_Initialize:	
  1930                           ; 1 bytes @ 0x0
  1931                           
  1932     0070                     ?_TMR0_Initialize:	
  1933                           ; 1 bytes @ 0x0
  1934                           
  1935     0070                     ?_TMR0_ISR:	
  1936                           ; 1 bytes @ 0x0
  1937                           
  1938     0070                     ?_INTERRUPT_InterruptManager:	
  1939                           ; 1 bytes @ 0x0
  1940                           
  1941     0070                     ?_SYSTEM_Initialize:	
  1942                           ; 1 bytes @ 0x0
  1943                           
  1944     0070                     ?_AutoBaud_Detect_ON:	
  1945                           ; 1 bytes @ 0x0
  1946                           
  1947     0070                     ?_AutoBaud_Detect:	
  1948                           ; 1 bytes @ 0x0
  1949                           
  1950     0070                     ?_main:	
  1951                           ; 1 bytes @ 0x0
  1952                           
  1953                           
  1954                           ; 2 bytes @ 0x0
  1955     0070                     	ds	1
  1956     0071                     ??_LIN_stopTimer:
  1957     0071                     ??_LIN_enableRx:	
  1958                           ; 1 bytes @ 0x1
  1959                           
  1960     0071                     ?_memcpy:	
  1961                           ; 1 bytes @ 0x1
  1962                           
  1963     0071                     ?_LIN_getChecksum:	
  1964                           ; 1 bytes @ 0x1
  1965                           
  1966     0071                     ??_EUSART_is_rx_ready:	
  1967                           ; 1 bytes @ 0x1
  1968                           
  1969     0071                     ??_LIN_startTimer:	
  1970                           ; 1 bytes @ 0x1
  1971                           
  1972     0071                     ??_EUSART_Read:	
  1973                           ; 1 bytes @ 0x1
  1974                           
  1975     0071                     ?_LIN_getFromTable:	
  1976                           ; 1 bytes @ 0x1
  1977                           
  1978     0071                     ??_LIN_disableRx:	
  1979                           ; 1 bytes @ 0x1
  1980                           
  1981     0071                     ?_memset:	
  1982                           ; 1 bytes @ 0x1
  1983                           
  1984     0071                     ??_EUSART_Write:	
  1985                           ; 1 bytes @ 0x1
  1986                           
  1987     0071                     ??_LIN_calcParity:	
  1988                           ; 1 bytes @ 0x1
  1989                           
  1990     0071                     ??_TMR0_Reload:	
  1991                           ; 1 bytes @ 0x1
  1992                           
  1993     0071                     ?_TMR0_SetInterruptHandler:	
  1994                           ; 1 bytes @ 0x1
  1995                           
  1996     0071                     ??_EUSART_get_last_status:	
  1997                           ; 1 bytes @ 0x1
  1998                           
  1999     0071                     ?_EUSART_SetRxInterruptHandler:	
  2000                           ; 1 bytes @ 0x1
  2001                           
  2002     0071                     ??_EUSART_Receive_ISR:	
  2003                           ; 1 bytes @ 0x1
  2004                           
  2005     0071                     ?_EUSART_SetTxInterruptHandler:	
  2006                           ; 1 bytes @ 0x1
  2007                           
  2008     0071                     ?_EUSART_SetFramingErrorHandler:	
  2009                           ; 1 bytes @ 0x1
  2010                           
  2011     0071                     ?_EUSART_SetOverrunErrorHandler:	
  2012                           ; 1 bytes @ 0x1
  2013                           
  2014     0071                     ?_EUSART_SetErrorHandler:	
  2015                           ; 1 bytes @ 0x1
  2016                           
  2017     0071                     ??_EUSART_DefaultErrorHandler:	
  2018                           ; 1 bytes @ 0x1
  2019                           
  2020     0071                     ??_EUSART_is_tx_ready:	
  2021                           ; 1 bytes @ 0x1
  2022                           
  2023     0071                     ??_EUSART_is_tx_done:	
  2024                           ; 1 bytes @ 0x1
  2025                           
  2026     0071                     ??_TMR0_WriteTimer:	
  2027                           ; 1 bytes @ 0x1
  2028                           
  2029     0071                     ??_TMR0_ReadTimer:	
  2030                           ; 1 bytes @ 0x1
  2031                           
  2032     0071                     ??_OSCILLATOR_Initialize:	
  2033                           ; 1 bytes @ 0x1
  2034                           
  2035     0071                     ??_WDT_Initialize:	
  2036                           ; 1 bytes @ 0x1
  2037                           
  2038     0071                     ??_POS_ON:	
  2039                           ; 1 bytes @ 0x1
  2040                           
  2041     0071                     ??_POS_OFF:	
  2042                           ; 1 bytes @ 0x1
  2043                           
  2044     0071                     ??_DRL_ON:	
  2045                           ; 1 bytes @ 0x1
  2046                           
  2047     0071                     ??_DRL_OFF:	
  2048                           ; 1 bytes @ 0x1
  2049                           
  2050     0071                     ??_LOBEAM_ON:	
  2051                           ; 1 bytes @ 0x1
  2052                           
  2053     0071                     ??_LOBEAM_OFF:	
  2054                           ; 1 bytes @ 0x1
  2055                           
  2056     0071                     ??_HIBEAM_ON:	
  2057                           ; 1 bytes @ 0x1
  2058                           
  2059     0071                     ??_HIBEAM_OFF:	
  2060                           ; 1 bytes @ 0x1
  2061                           
  2062     0071                     ??_LEFT_ON:	
  2063                           ; 1 bytes @ 0x1
  2064                           
  2065     0071                     ??_LEFT_OFF:	
  2066                           ; 1 bytes @ 0x1
  2067                           
  2068     0071                     ??_RIGHT_ON:	
  2069                           ; 1 bytes @ 0x1
  2070                           
  2071     0071                     ??_RIGHT_OFF:	
  2072                           ; 1 bytes @ 0x1
  2073                           
  2074     0071                     ??_PIN_MANAGER_Initialize:	
  2075                           ; 1 bytes @ 0x1
  2076                           
  2077     0071                     ??_TMR0_ISR:	
  2078                           ; 1 bytes @ 0x1
  2079                           
  2080     0071                     ??_INTERRUPT_InterruptManager:	
  2081                           ; 1 bytes @ 0x1
  2082                           
  2083     0071                     ??_AutoBaud_Detect_ON:	
  2084                           ; 1 bytes @ 0x1
  2085                           
  2086     0071                     ??_AutoBaud_Detect:	
  2087                           ; 1 bytes @ 0x1
  2088                           
  2089     0071                     LIN_getFromTable@param:	
  2090                           ; 1 bytes @ 0x1
  2091                           
  2092     0071                     LIN_getChecksum@pid:	
  2093                           ; 1 bytes @ 0x1
  2094                           
  2095     0071                     LIN_startTimer@timeout:	
  2096                           ; 1 bytes @ 0x1
  2097                           
  2098     0071                     TMR0_WriteTimer@timerVal:	
  2099                           ; 1 bytes @ 0x1
  2100                           
  2101     0071                     memcpy@s1:	
  2102                           ; 1 bytes @ 0x1
  2103                           
  2104     0071                     EUSART_SetFramingErrorHandler@interruptHandler:	
  2105                           ; 1 bytes @ 0x1
  2106                           
  2107     0071                     EUSART_SetOverrunErrorHandler@interruptHandler:	
  2108                           ; 2 bytes @ 0x1
  2109                           
  2110     0071                     EUSART_SetErrorHandler@interruptHandler:	
  2111                           ; 2 bytes @ 0x1
  2112                           
  2113     0071                     EUSART_SetTxInterruptHandler@interruptHandler:	
  2114                           ; 2 bytes @ 0x1
  2115                           
  2116     0071                     EUSART_SetRxInterruptHandler@interruptHandler:	
  2117                           ; 2 bytes @ 0x1
  2118                           
  2119     0071                     TMR0_SetInterruptHandler@InterruptHandler:	
  2120                           ; 2 bytes @ 0x1
  2121                           
  2122     0071                     memset@c:	
  2123                           ; 2 bytes @ 0x1
  2124                           
  2125                           
  2126                           ; 2 bytes @ 0x1
  2127     0071                     	ds	1
  2128     0072                     ??_LIN_getFromTable:
  2129     0072                     LIN_calcParity@CMD:	
  2130                           ; 1 bytes @ 0x2
  2131                           
  2132     0072                     LIN_getChecksum@data:	
  2133                           ; 1 bytes @ 0x2
  2134                           
  2135     0072                     EUSART_Read@readValue:	
  2136                           ; 1 bytes @ 0x2
  2137                           
  2138     0072                     EUSART_Write@txData:	
  2139                           ; 1 bytes @ 0x2
  2140                           
  2141     0072                     memcpy@n:	
  2142                           ; 1 bytes @ 0x2
  2143                           
  2144                           
  2145                           ; 2 bytes @ 0x2
  2146     0072                     	ds	1
  2147     0073                     ?_LIN_init:
  2148     0073                     ??_LIN_setTimerHandler:	
  2149                           ; 1 bytes @ 0x3
  2150                           
  2151     0073                     ??_LIN_getChecksum:	
  2152                           ; 1 bytes @ 0x3
  2153                           
  2154     0073                     ??_LIN_breakCheck:	
  2155                           ; 1 bytes @ 0x3
  2156                           
  2157     0073                     ??_TMR0_SetInterruptHandler:	
  2158                           ; 1 bytes @ 0x3
  2159                           
  2160     0073                     ??_EUSART_SetRxInterruptHandler:	
  2161                           ; 1 bytes @ 0x3
  2162                           
  2163     0073                     ??_EUSART_SetTxInterruptHandler:	
  2164                           ; 1 bytes @ 0x3
  2165                           
  2166     0073                     ??_EUSART_SetFramingErrorHandler:	
  2167                           ; 1 bytes @ 0x3
  2168                           
  2169     0073                     ??_EUSART_SetOverrunErrorHandler:	
  2170                           ; 1 bytes @ 0x3
  2171                           
  2172     0073                     ??_EUSART_SetErrorHandler:	
  2173                           ; 1 bytes @ 0x3
  2174                           
  2175     0073                     ??_EUSART_Initialize:	
  2176                           ; 1 bytes @ 0x3
  2177                           
  2178     0073                     ??_TMR0_Initialize:	
  2179                           ; 1 bytes @ 0x3
  2180                           
  2181     0073                     LIN_calcParity@PID:	
  2182                           ; 1 bytes @ 0x3
  2183                           
  2184     0073                     LIN_init@command:	
  2185                           ; 1 bytes @ 0x3
  2186                           
  2187     0073                     memset@n:	
  2188                           ; 2 bytes @ 0x3
  2189                           
  2190                           
  2191                           ; 2 bytes @ 0x3
  2192     0073                     	ds	1
  2193     0074                     ??_memcpy:
  2194     0074                     LIN_getFromTable@cmd:	
  2195                           ; 1 bytes @ 0x4
  2196                           
  2197                           
  2198                           ; 1 bytes @ 0x4
  2199     0074                     	ds	1
  2200     0075                     ??_memset:
  2201     0075                     LIN_getFromTable@length:	
  2202                           ; 1 bytes @ 0x5
  2203                           
  2204     0075                     LIN_getChecksum@length:	
  2205                           ; 1 bytes @ 0x5
  2206                           
  2207     0075                     memcpy@tmp:	
  2208                           ; 1 bytes @ 0x5
  2209                           
  2210     0075                     LIN_init@processData:	
  2211                           ; 1 bytes @ 0x5
  2212                           
  2213                           
  2214                           ; 2 bytes @ 0x5
  2215     0075                     	ds	1
  2216     0076                     LIN_getChecksum@i:
  2217     0076                     memcpy@d:	
  2218                           ; 1 bytes @ 0x6
  2219                           
  2220     0076                     memset@p:	
  2221                           ; 1 bytes @ 0x6
  2222                           
  2223     0076                     LIN_getFromTable@rxCommand:	
  2224                           ; 1 bytes @ 0x6
  2225                           
  2226                           
  2227                           ; 2 bytes @ 0x6
  2228     0076                     	ds	1
  2229     0077                     ??_LIN_init:
  2230     0077                     LIN_init@tableLength:	
  2231                           ; 1 bytes @ 0x7
  2232                           
  2233     0077                     memcpy@s:	
  2234                           ; 1 bytes @ 0x7
  2235                           
  2236     0077                     memset@dest:	
  2237                           ; 1 bytes @ 0x7
  2238                           
  2239     0077                     LIN_getChecksum@checksum:	
  2240                           ; 1 bytes @ 0x7
  2241                           
  2242                           
  2243                           ; 2 bytes @ 0x7
  2244     0077                     	ds	1
  2245     0078                     ??_LIN_checkPID:
  2246     0078                     ??_LIN_Slave_Initialize:	
  2247                           ; 1 bytes @ 0x8
  2248                           
  2249     0078                     ??_SYSTEM_Initialize:	
  2250                           ; 1 bytes @ 0x8
  2251                           
  2252     0078                     LIN_checkPID@pid:	
  2253                           ; 1 bytes @ 0x8
  2254                           
  2255     0078                     memcpy@d1:	
  2256                           ; 1 bytes @ 0x8
  2257                           
  2258                           
  2259                           ; 1 bytes @ 0x8
  2260     0078                     	ds	1
  2261     0079                     ??_LIN_getPacket:
  2262     0079                     ?_LIN_sendPacket:	
  2263                           ; 1 bytes @ 0x9
  2264                           
  2265     0079                     LIN_sendPacket@pid:	
  2266                           ; 1 bytes @ 0x9
  2267                           
  2268     0079                     LIN_getPacket@cmd:	
  2269                           ; 1 bytes @ 0x9
  2270                           
  2271                           
  2272                           ; 1 bytes @ 0x9
  2273     0079                     	ds	1
  2274     007A                     LIN_sendPacket@data:
  2275     007A                     LIN_getPacket@data:	
  2276                           ; 1 bytes @ 0xA
  2277                           
  2278                           
  2279                           ; 1 bytes @ 0xA
  2280     007A                     	ds	1
  2281     007B                     ??_processLIN:
  2282     007B                     ??_main:	
  2283                           ; 1 bytes @ 0xB
  2284                           
  2285                           
  2286                           	psect	cstackBANK0
  2287     005C                     __pcstackBANK0:	
  2288                           ; 1 bytes @ 0xB
  2289                           
  2290     005C                     ??_LIN_sendPacket:
  2291     005C                     processLIN@cmd:	
  2292                           ; 1 bytes @ 0x0
  2293                           
  2294                           
  2295                           ; 1 bytes @ 0x0
  2296     005C                     	ds	1
  2297     005D                     LIN_sendPacket@length:
  2298     005D                     processLIN@tempRxData:	
  2299                           ; 1 bytes @ 0x1
  2300                           
  2301                           
  2302                           ; 8 bytes @ 0x1
  2303     005D                     	ds	1
  2304     005E                     LIN_sendPacket@i:
  2305                           
  2306                           ; 1 bytes @ 0x2
  2307     005E                     	ds	1
  2308     005F                     ??_LIN_queuePacket:
  2309                           
  2310                           ; 1 bytes @ 0x3
  2311     005F                     	ds	4
  2312     0063                     LIN_queuePacket@cmd:
  2313                           
  2314                           ; 1 bytes @ 0x7
  2315     0063                     	ds	1
  2316     0064                     LIN_queuePacket@i:
  2317                           
  2318                           ; 1 bytes @ 0x8
  2319     0064                     	ds	1
  2320     0065                     LIN_queuePacket@tempSchedule:
  2321                           
  2322                           ; 2 bytes @ 0x9
  2323     0065                     	ds	2
  2324     0067                     ??_LIN_handler:
  2325                           
  2326                           ; 1 bytes @ 0xB
  2327     0067                     	ds	2
  2328                           
  2329                           	psect	maintext
  2330     05FC                     __pmaintext:	
  2331 ;;
  2332 ;;Main: autosize = 0, tempsize = 0, incstack = 0, save=0
  2333 ;;
  2334 ;; *************** function _main *****************
  2335 ;; Defined at:
  2336 ;;		line 162 in file "main.c"
  2337 ;; Parameters:    Size  Location     Type
  2338 ;;		None
  2339 ;; Auto vars:     Size  Location     Type
  2340 ;;		None
  2341 ;; Return value:  Size  Location     Type
  2342 ;;                  2  607[None  ] int 
  2343 ;; Registers used:
  2344 ;;		wreg, fsr0l, fsr0h, fsr1l, fsr1h, status,2, status,0, pclath, cstack
  2345 ;; Tracked objects:
  2346 ;;		On entry : B1F/0
  2347 ;;		On exit  : 0/0
  2348 ;;		Unchanged: 0/0
  2349 ;; Data sizes:     COMMON   BANK0   BANK1   BANK2   BANK3   BANK4   BANK5   BANK6
  2350 ;;      Params:         0       0       0       0       0       0       0       0
  2351 ;;      Locals:         0       0       0       0       0       0       0       0
  2352 ;;      Temps:          0       0       0       0       0       0       0       0
  2353 ;;      Totals:         0       0       0       0       0       0       0       0
  2354 ;;Total ram usage:        0 bytes
  2355 ;; Hardware stack levels required when called: 9
  2356 ;; This function calls:
  2357 ;;		_AutoBaud_Detect
  2358 ;;		_LIN_handler
  2359 ;;		_SYSTEM_Initialize
  2360 ;; This function is called by:
  2361 ;;		Startup code after reset
  2362 ;; This function uses a non-reentrant model
  2363 ;;
  2364                           
  2365     05FC                     _main:	
  2366                           ;psect for function _main
  2367                           
  2368     05FC                     l2691:	
  2369                           ;incstack = 0
  2370                           ; Regs used in _main: [wreg-fsr1h+status,2+status,0+pclath+cstack]
  2371                           
  2372                           
  2373                           ;main.c: 165:   SYSTEM_Initialize();
  2374     05FC  3185  25B3  3185   	fcall	_SYSTEM_Initialize
  2375     05FF                     l2693:
  2376                           
  2377                           ;main.c: 166:   AutoBaud_Detect();
  2378     05FF  3185  25D9  3185   	fcall	_AutoBaud_Detect
  2379     0602                     l2695:
  2380                           
  2381                           ;main.c: 172:   (INTCONbits.GIE = 1);
  2382     0602  178B               	bsf	11,7	;volatile
  2383     0603                     l2697:
  2384                           
  2385                           ;main.c: 175:   (INTCONbits.PEIE = 1);
  2386     0603  170B               	bsf	11,6	;volatile
  2387     0604                     l2699:
  2388                           
  2389                           ;main.c: 185:     LIN_handler();
  2390     0604  3180  2054  3185   	fcall	_LIN_handler
  2391     0607  2E04               	goto	l2699
  2392     0608  3180  2838         	ljmp	start
  2393     060A                     __end_of_main:
  2394                           
  2395                           	psect	text1
  2396     05B3                     __ptext1:	
  2397 ;; *************** function _SYSTEM_Initialize *****************
  2398 ;; Defined at:
  2399 ;;		line 50 in file "mcc_generated_files/mcc.c"
  2400 ;; Parameters:    Size  Location     Type
  2401 ;;		None
  2402 ;; Auto vars:     Size  Location     Type
  2403 ;;		None
  2404 ;; Return value:  Size  Location     Type
  2405 ;;                  1    wreg      void 
  2406 ;; Registers used:
  2407 ;;		wreg, status,2, status,0, pclath, cstack
  2408 ;; Tracked objects:
  2409 ;;		On entry : 0/0
  2410 ;;		On exit  : 0/0
  2411 ;;		Unchanged: 0/0
  2412 ;; Data sizes:     COMMON   BANK0   BANK1   BANK2   BANK3   BANK4   BANK5   BANK6
  2413 ;;      Params:         0       0       0       0       0       0       0       0
  2414 ;;      Locals:         0       0       0       0       0       0       0       0
  2415 ;;      Temps:          0       0       0       0       0       0       0       0
  2416 ;;      Totals:         0       0       0       0       0       0       0       0
  2417 ;;Total ram usage:        0 bytes
  2418 ;; Hardware stack levels used: 1
  2419 ;; Hardware stack levels required when called: 8
  2420 ;; This function calls:
  2421 ;;		_EUSART_Initialize
  2422 ;;		_LIN_Slave_Initialize
  2423 ;;		_OSCILLATOR_Initialize
  2424 ;;		_PIN_MANAGER_Initialize
  2425 ;;		_TMR0_Initialize
  2426 ;;		_WDT_Initialize
  2427 ;; This function is called by:
  2428 ;;		_main
  2429 ;; This function uses a non-reentrant model
  2430 ;;
  2431                           
  2432     05B3                     _SYSTEM_Initialize:	
  2433                           ;psect for function _SYSTEM_Initialize
  2434                           
  2435     05B3                     l2471:	
  2436                           ;incstack = 0
  2437                           ; Regs used in _SYSTEM_Initialize: [wreg+status,2+status,0+pclath+cstack]
  2438                           
  2439                           
  2440                           ;mcc_generated_files/mcc.c: 53:     PIN_MANAGER_Initialize();
  2441     05B3  3185  2537  3185   	fcall	_PIN_MANAGER_Initialize
  2442                           
  2443                           ;mcc_generated_files/mcc.c: 54:     OSCILLATOR_Initialize();
  2444     05B6  3186  2625  3185   	fcall	_OSCILLATOR_Initialize
  2445                           
  2446                           ;mcc_generated_files/mcc.c: 55:     WDT_Initialize();
  2447     05B9  3186  268F  3185   	fcall	_WDT_Initialize
  2448                           
  2449                           ;mcc_generated_files/mcc.c: 56:     TMR0_Initialize();
  2450     05BC  3185  251C  3185   	fcall	_TMR0_Initialize
  2451                           
  2452                           ;mcc_generated_files/mcc.c: 57:     EUSART_Initialize();
  2453     05BF  3183  2396  3185   	fcall	_EUSART_Initialize
  2454                           
  2455                           ;mcc_generated_files/mcc.c: 58:     LIN_Slave_Initialize();
  2456     05C2  3186  2618  3185   	fcall	_LIN_Slave_Initialize
  2457     05C5                     l568:
  2458     05C5  0008               	return
  2459     05C6                     __end_of_SYSTEM_Initialize:
  2460                           
  2461                           	psect	text2
  2462     068F                     __ptext2:	
  2463 ;; *************** function _WDT_Initialize *****************
  2464 ;; Defined at:
  2465 ;;		line 75 in file "mcc_generated_files/mcc.c"
  2466 ;; Parameters:    Size  Location     Type
  2467 ;;		None
  2468 ;; Auto vars:     Size  Location     Type
  2469 ;;		None
  2470 ;; Return value:  Size  Location     Type
  2471 ;;                  1    wreg      void 
  2472 ;; Registers used:
  2473 ;;		wreg
  2474 ;; Tracked objects:
  2475 ;;		On entry : 0/0
  2476 ;;		On exit  : 0/0
  2477 ;;		Unchanged: 0/0
  2478 ;; Data sizes:     COMMON   BANK0   BANK1   BANK2   BANK3   BANK4   BANK5   BANK6
  2479 ;;      Params:         0       0       0       0       0       0       0       0
  2480 ;;      Locals:         0       0       0       0       0       0       0       0
  2481 ;;      Temps:          0       0       0       0       0       0       0       0
  2482 ;;      Totals:         0       0       0       0       0       0       0       0
  2483 ;;Total ram usage:        0 bytes
  2484 ;; Hardware stack levels used: 1
  2485 ;; Hardware stack levels required when called: 4
  2486 ;; This function calls:
  2487 ;;		Nothing
  2488 ;; This function is called by:
  2489 ;;		_SYSTEM_Initialize
  2490 ;; This function uses a non-reentrant model
  2491 ;;
  2492                           
  2493     068F                     _WDT_Initialize:	
  2494                           ;psect for function _WDT_Initialize
  2495                           
  2496     068F                     l1685:	
  2497                           ;incstack = 0
  2498                           ; Regs used in _WDT_Initialize: [wreg]
  2499                           
  2500                           
  2501                           ;mcc_generated_files/mcc.c: 78:     WDTCON = 0x16;
  2502     068F  3016               	movlw	22
  2503     0690  0021               	movlb	1	; select bank1
  2504     0691  0097               	movwf	23	;volatile
  2505     0692                     l577:
  2506     0692  0008               	return
  2507     0693                     __end_of_WDT_Initialize:
  2508                           
  2509                           	psect	text3
  2510     051C                     __ptext3:	
  2511 ;; *************** function _TMR0_Initialize *****************
  2512 ;; Defined at:
  2513 ;;		line 68 in file "mcc_generated_files/tmr0.c"
  2514 ;; Parameters:    Size  Location     Type
  2515 ;;		None
  2516 ;; Auto vars:     Size  Location     Type
  2517 ;;		None
  2518 ;; Return value:  Size  Location     Type
  2519 ;;                  1    wreg      void 
  2520 ;; Registers used:
  2521 ;;		wreg, status,2, status,0, pclath, cstack
  2522 ;; Tracked objects:
  2523 ;;		On entry : 0/0
  2524 ;;		On exit  : 0/0
  2525 ;;		Unchanged: 0/0
  2526 ;; Data sizes:     COMMON   BANK0   BANK1   BANK2   BANK3   BANK4   BANK5   BANK6
  2527 ;;      Params:         0       0       0       0       0       0       0       0
  2528 ;;      Locals:         0       0       0       0       0       0       0       0
  2529 ;;      Temps:          0       0       0       0       0       0       0       0
  2530 ;;      Totals:         0       0       0       0       0       0       0       0
  2531 ;;Total ram usage:        0 bytes
  2532 ;; Hardware stack levels used: 1
  2533 ;; Hardware stack levels required when called: 5
  2534 ;; This function calls:
  2535 ;;		_TMR0_ReadTimer
  2536 ;;		_TMR0_SetInterruptHandler
  2537 ;;		_TMR0_WriteTimer
  2538 ;; This function is called by:
  2539 ;;		_SYSTEM_Initialize
  2540 ;; This function uses a non-reentrant model
  2541 ;;
  2542                           
  2543     051C                     _TMR0_Initialize:	
  2544                           ;psect for function _TMR0_Initialize
  2545                           
  2546     051C                     l2317:	
  2547                           ;incstack = 0
  2548                           ; Regs used in _TMR0_Initialize: [wreg+status,2+status,0+pclath+cstack]
  2549                           
  2550                           
  2551                           ;mcc_generated_files/tmr0.c: 73:   OPTION_REG = (uint8_t)((OPTION_REG & 0xC0) | (0xD4 & 
      +                          0x3F));
  2552     051C  0021               	movlb	1	; select bank1
  2553     051D  0815               	movf	21,w	;volatile
  2554     051E  39C0               	andlw	192
  2555     051F  3814               	iorlw	20
  2556     0520  0095               	movwf	21	;volatile
  2557     0521                     l2319:
  2558                           
  2559                           ;mcc_generated_files/tmr0.c: 76:   TMR0 = 0x06;
  2560     0521  3006               	movlw	6
  2561     0522  0020               	movlb	0	; select bank0
  2562     0523  0095               	movwf	21	;volatile
  2563     0524                     l2321:
  2564                           
  2565                           ;mcc_generated_files/tmr0.c: 79:   timer0ReloadVal = 6;
  2566     0524  3006               	movlw	6
  2567     0525  00C0               	movwf	_timer0ReloadVal	;volatile
  2568     0526                     l2323:
  2569                           
  2570                           ;mcc_generated_files/tmr0.c: 81:   TMR0_WriteTimer(timer0ReloadVal);
  2571     0526  0840               	movf	_timer0ReloadVal,w	;volatile
  2572     0527  3186  2677  3185   	fcall	_TMR0_WriteTimer
  2573     052A                     l2325:
  2574                           
  2575                           ;mcc_generated_files/tmr0.c: 82:   TMR0_ReadTimer();
  2576     052A  3186  26A3  3185   	fcall	_TMR0_ReadTimer
  2577     052D                     l2327:
  2578                           
  2579                           ;mcc_generated_files/tmr0.c: 85:   INTCONbits.TMR0IF = 0;
  2580     052D  110B               	bcf	11,2	;volatile
  2581     052E                     l2329:
  2582                           
  2583                           ;mcc_generated_files/tmr0.c: 88:   INTCONbits.TMR0IE = 1;
  2584     052E  168B               	bsf	11,5	;volatile
  2585     052F                     l2331:
  2586                           
  2587                           ;mcc_generated_files/tmr0.c: 91:   TMR0_SetInterruptHandler(TMR0_DefaultInterruptHandler
      +                          );
  2588     052F  30D2               	movlw	low _TMR0_DefaultInterruptHandler
  2589     0530  00F1               	movwf	TMR0_SetInterruptHandler@InterruptHandler
  2590     0531  3006               	movlw	high _TMR0_DefaultInterruptHandler
  2591     0532  00F2               	movwf	TMR0_SetInterruptHandler@InterruptHandler+1
  2592     0533  3186  2653  3185   	fcall	_TMR0_SetInterruptHandler
  2593     0536                     l491:
  2594     0536  0008               	return
  2595     0537                     __end_of_TMR0_Initialize:
  2596                           
  2597                           	psect	text4
  2598     0677                     __ptext4:	
  2599 ;; *************** function _TMR0_WriteTimer *****************
  2600 ;; Defined at:
  2601 ;;		line 101 in file "mcc_generated_files/tmr0.c"
  2602 ;; Parameters:    Size  Location     Type
  2603 ;;  timerVal        1    wreg     unsigned char 
  2604 ;; Auto vars:     Size  Location     Type
  2605 ;;  timerVal        1    1[COMMON] unsigned char 
  2606 ;; Return value:  Size  Location     Type
  2607 ;;                  1    wreg      void 
  2608 ;; Registers used:
  2609 ;;		wreg
  2610 ;; Tracked objects:
  2611 ;;		On entry : 0/0
  2612 ;;		On exit  : 0/0
  2613 ;;		Unchanged: 0/0
  2614 ;; Data sizes:     COMMON   BANK0   BANK1   BANK2   BANK3   BANK4   BANK5   BANK6
  2615 ;;      Params:         0       0       0       0       0       0       0       0
  2616 ;;      Locals:         1       0       0       0       0       0       0       0
  2617 ;;      Temps:          0       0       0       0       0       0       0       0
  2618 ;;      Totals:         1       0       0       0       0       0       0       0
  2619 ;;Total ram usage:        1 bytes
  2620 ;; Hardware stack levels used: 1
  2621 ;; Hardware stack levels required when called: 4
  2622 ;; This function calls:
  2623 ;;		Nothing
  2624 ;; This function is called by:
  2625 ;;		_TMR0_Initialize
  2626 ;; This function uses a non-reentrant model
  2627 ;;
  2628                           
  2629     0677                     _TMR0_WriteTimer:	
  2630                           ;psect for function _TMR0_WriteTimer
  2631                           
  2632                           
  2633                           ;incstack = 0
  2634                           ; Regs used in _TMR0_WriteTimer: [wreg]
  2635                           ;TMR0_WriteTimer@timerVal stored from wreg
  2636     0677  00F1               	movwf	TMR0_WriteTimer@timerVal
  2637     0678                     l2101:
  2638                           
  2639                           ;mcc_generated_files/tmr0.c: 103:   TMR0 = timerVal;
  2640     0678  0871               	movf	TMR0_WriteTimer@timerVal,w
  2641     0679  0020               	movlb	0	; select bank0
  2642     067A  0095               	movwf	21	;volatile
  2643     067B                     l497:
  2644     067B  0008               	return
  2645     067C                     __end_of_TMR0_WriteTimer:
  2646                           
  2647                           	psect	text5
  2648     06A3                     __ptext5:	
  2649 ;; *************** function _TMR0_ReadTimer *****************
  2650 ;; Defined at:
  2651 ;;		line 94 in file "mcc_generated_files/tmr0.c"
  2652 ;; Parameters:    Size  Location     Type
  2653 ;;		None
  2654 ;; Auto vars:     Size  Location     Type
  2655 ;;  readVal         1    0        unsigned char 
  2656 ;; Return value:  Size  Location     Type
  2657 ;;                  1    wreg      unsigned char 
  2658 ;; Registers used:
  2659 ;;		wreg
  2660 ;; Tracked objects:
  2661 ;;		On entry : 0/0
  2662 ;;		On exit  : 0/0
  2663 ;;		Unchanged: 0/0
  2664 ;; Data sizes:     COMMON   BANK0   BANK1   BANK2   BANK3   BANK4   BANK5   BANK6
  2665 ;;      Params:         0       0       0       0       0       0       0       0
  2666 ;;      Locals:         0       0       0       0       0       0       0       0
  2667 ;;      Temps:          0       0       0       0       0       0       0       0
  2668 ;;      Totals:         0       0       0       0       0       0       0       0
  2669 ;;Total ram usage:        0 bytes
  2670 ;; Hardware stack levels used: 1
  2671 ;; Hardware stack levels required when called: 4
  2672 ;; This function calls:
  2673 ;;		Nothing
  2674 ;; This function is called by:
  2675 ;;		_TMR0_Initialize
  2676 ;; This function uses a non-reentrant model
  2677 ;;
  2678                           
  2679     06A3                     _TMR0_ReadTimer:	
  2680                           ;psect for function _TMR0_ReadTimer
  2681                           
  2682     06A3                     l2103:	
  2683                           ;incstack = 0
  2684                           ; Regs used in _TMR0_ReadTimer: [wreg]
  2685                           
  2686     06A3  0020               	movlb	0	; select bank0
  2687     06A4  0815               	movf	21,w	;volatile
  2688     06A5                     l494:
  2689     06A5  0008               	return
  2690     06A6                     __end_of_TMR0_ReadTimer:
  2691                           
  2692                           	psect	text6
  2693     0537                     __ptext6:	
  2694 ;; *************** function _PIN_MANAGER_Initialize *****************
  2695 ;; Defined at:
  2696 ;;		line 55 in file "mcc_generated_files/pin_manager.c"
  2697 ;; Parameters:    Size  Location     Type
  2698 ;;		None
  2699 ;; Auto vars:     Size  Location     Type
  2700 ;;		None
  2701 ;; Return value:  Size  Location     Type
  2702 ;;                  1    wreg      void 
  2703 ;; Registers used:
  2704 ;;		wreg, status,2
  2705 ;; Tracked objects:
  2706 ;;		On entry : 0/0
  2707 ;;		On exit  : 0/0
  2708 ;;		Unchanged: 0/0
  2709 ;; Data sizes:     COMMON   BANK0   BANK1   BANK2   BANK3   BANK4   BANK5   BANK6
  2710 ;;      Params:         0       0       0       0       0       0       0       0
  2711 ;;      Locals:         0       0       0       0       0       0       0       0
  2712 ;;      Temps:          0       0       0       0       0       0       0       0
  2713 ;;      Totals:         0       0       0       0       0       0       0       0
  2714 ;;Total ram usage:        0 bytes
  2715 ;; Hardware stack levels used: 1
  2716 ;; Hardware stack levels required when called: 4
  2717 ;; This function calls:
  2718 ;;		Nothing
  2719 ;; This function is called by:
  2720 ;;		_SYSTEM_Initialize
  2721 ;; This function uses a non-reentrant model
  2722 ;;
  2723                           
  2724     0537                     _PIN_MANAGER_Initialize:	
  2725                           ;psect for function _PIN_MANAGER_Initialize
  2726                           
  2727     0537                     l1603:	
  2728                           ;incstack = 0
  2729                           ; Regs used in _PIN_MANAGER_Initialize: [wreg+status,2]
  2730                           
  2731                           
  2732                           ;mcc_generated_files/pin_manager.c: 60:     LATE = 0x00;
  2733     0537  0022               	movlb	2	; select bank2
  2734     0538  0190               	clrf	16	;volatile
  2735                           
  2736                           ;mcc_generated_files/pin_manager.c: 61:     LATA = 0x00;
  2737     0539  018C               	clrf	12	;volatile
  2738                           
  2739                           ;mcc_generated_files/pin_manager.c: 62:     LATB = 0x00;
  2740     053A  018D               	clrf	13	;volatile
  2741                           
  2742                           ;mcc_generated_files/pin_manager.c: 63:     LATC = 0x00;
  2743     053B  018E               	clrf	14	;volatile
  2744     053C                     l1605:
  2745                           
  2746                           ;mcc_generated_files/pin_manager.c: 68:     TRISE = 0x08;
  2747     053C  3008               	movlw	8
  2748     053D  0021               	movlb	1	; select bank1
  2749     053E  0090               	movwf	16	;volatile
  2750     053F                     l1607:
  2751                           
  2752                           ;mcc_generated_files/pin_manager.c: 69:     TRISA = 0xFF;
  2753     053F  30FF               	movlw	255
  2754     0540  008C               	movwf	12	;volatile
  2755     0541                     l1609:
  2756                           
  2757                           ;mcc_generated_files/pin_manager.c: 70:     TRISB = 0xC0;
  2758     0541  30C0               	movlw	192
  2759     0542  008D               	movwf	13	;volatile
  2760     0543                     l1611:
  2761                           
  2762                           ;mcc_generated_files/pin_manager.c: 71:     TRISC = 0xAF;
  2763     0543  30AF               	movlw	175
  2764     0544  008E               	movwf	14	;volatile
  2765                           
  2766                           ;mcc_generated_files/pin_manager.c: 76:     ANSELB = 0x00;
  2767     0545  0023               	movlb	3	; select bank3
  2768     0546  018D               	clrf	13	;volatile
  2769     0547                     l1613:
  2770                           
  2771                           ;mcc_generated_files/pin_manager.c: 77:     ANSELA = 0x3F;
  2772     0547  303F               	movlw	63
  2773     0548  008C               	movwf	12	;volatile
  2774     0549                     l1615:
  2775                           
  2776                           ;mcc_generated_files/pin_manager.c: 82:     WPUE = 0x00;
  2777     0549  0024               	movlb	4	; select bank4
  2778     054A  0190               	clrf	16	;volatile
  2779     054B                     l1617:
  2780                           
  2781                           ;mcc_generated_files/pin_manager.c: 83:     WPUB = 0x00;
  2782     054B  018D               	clrf	13	;volatile
  2783     054C                     l1619:
  2784                           
  2785                           ;mcc_generated_files/pin_manager.c: 84:     OPTION_REGbits.nWPUEN = 1;
  2786     054C  0021               	movlb	1	; select bank1
  2787     054D  1795               	bsf	21,7	;volatile
  2788     054E                     l1621:
  2789                           
  2790                           ;mcc_generated_files/pin_manager.c: 90:     APFCON = 0x00;
  2791     054E  0022               	movlb	2	; select bank2
  2792     054F  019D               	clrf	29	;volatile
  2793     0550                     l322:
  2794     0550  0008               	return
  2795     0551                     __end_of_PIN_MANAGER_Initialize:
  2796                           
  2797                           	psect	text7
  2798     0625                     __ptext7:	
  2799 ;; *************** function _OSCILLATOR_Initialize *****************
  2800 ;; Defined at:
  2801 ;;		line 61 in file "mcc_generated_files/mcc.c"
  2802 ;; Parameters:    Size  Location     Type
  2803 ;;		None
  2804 ;; Auto vars:     Size  Location     Type
  2805 ;;		None
  2806 ;; Return value:  Size  Location     Type
  2807 ;;                  1    wreg      void 
  2808 ;; Registers used:
  2809 ;;		wreg, status,2
  2810 ;; Tracked objects:
  2811 ;;		On entry : 0/0
  2812 ;;		On exit  : 0/0
  2813 ;;		Unchanged: 0/0
  2814 ;; Data sizes:     COMMON   BANK0   BANK1   BANK2   BANK3   BANK4   BANK5   BANK6
  2815 ;;      Params:         0       0       0       0       0       0       0       0
  2816 ;;      Locals:         0       0       0       0       0       0       0       0
  2817 ;;      Temps:          0       0       0       0       0       0       0       0
  2818 ;;      Totals:         0       0       0       0       0       0       0       0
  2819 ;;Total ram usage:        0 bytes
  2820 ;; Hardware stack levels used: 1
  2821 ;; Hardware stack levels required when called: 4
  2822 ;; This function calls:
  2823 ;;		Nothing
  2824 ;; This function is called by:
  2825 ;;		_SYSTEM_Initialize
  2826 ;; This function uses a non-reentrant model
  2827 ;;
  2828                           
  2829     0625                     _OSCILLATOR_Initialize:	
  2830                           ;psect for function _OSCILLATOR_Initialize
  2831                           
  2832     0625                     l1679:	
  2833                           ;incstack = 0
  2834                           ; Regs used in _OSCILLATOR_Initialize: [wreg+status,2]
  2835                           
  2836                           
  2837                           ;mcc_generated_files/mcc.c: 64:     OSCCON = 0x70;
  2838     0625  3070               	movlw	112
  2839     0626  0021               	movlb	1	; select bank1
  2840     0627  0099               	movwf	25	;volatile
  2841     0628                     l1681:
  2842                           
  2843                           ;mcc_generated_files/mcc.c: 66:     OSCTUNE = 0x00;
  2844     0628  0198               	clrf	24	;volatile
  2845     0629                     l1683:
  2846                           
  2847                           ;mcc_generated_files/mcc.c: 68:     BORCON = 0x00;
  2848     0629  0022               	movlb	2	; select bank2
  2849     062A  0196               	clrf	22	;volatile
  2850     062B                     l571:	
  2851                           ;mcc_generated_files/mcc.c: 71:     {;mcc_generated_files/mcc.c: 72:     }
  2852                           
  2853                           
  2854                           ;mcc_generated_files/mcc.c: 70:     while(PLLR == 0)
  2855     062B  0021               	movlb	1	; select bank1
  2856     062C  1F1A               	btfss	26,6	;volatile
  2857     062D  2E2F               	goto	u711
  2858     062E  2E30               	goto	u710
  2859     062F                     u711:
  2860     062F  2E2B               	goto	l571
  2861     0630                     u710:
  2862     0630                     l574:
  2863     0630  0008               	return
  2864     0631                     __end_of_OSCILLATOR_Initialize:
  2865                           
  2866                           	psect	text8
  2867     0618                     __ptext8:	
  2868 ;; *************** function _LIN_Slave_Initialize *****************
  2869 ;; Defined at:
  2870 ;;		line 148 in file "mcc_generated_files/LINDrivers/lin_app.c"
  2871 ;; Parameters:    Size  Location     Type
  2872 ;;		None
  2873 ;; Auto vars:     Size  Location     Type
  2874 ;;		None
  2875 ;; Return value:  Size  Location     Type
  2876 ;;                  1    wreg      void 
  2877 ;; Registers used:
  2878 ;;		wreg, status,2, status,0, pclath, cstack
  2879 ;; Tracked objects:
  2880 ;;		On entry : 0/0
  2881 ;;		On exit  : 0/0
  2882 ;;		Unchanged: 0/0
  2883 ;; Data sizes:     COMMON   BANK0   BANK1   BANK2   BANK3   BANK4   BANK5   BANK6
  2884 ;;      Params:         0       0       0       0       0       0       0       0
  2885 ;;      Locals:         0       0       0       0       0       0       0       0
  2886 ;;      Temps:          0       0       0       0       0       0       0       0
  2887 ;;      Totals:         0       0       0       0       0       0       0       0
  2888 ;;Total ram usage:        0 bytes
  2889 ;; Hardware stack levels used: 1
  2890 ;; Hardware stack levels required when called: 7
  2891 ;; This function calls:
  2892 ;;		_LIN_init
  2893 ;; This function is called by:
  2894 ;;		_SYSTEM_Initialize
  2895 ;; This function uses a non-reentrant model
  2896 ;;
  2897                           
  2898     0618                     _LIN_Slave_Initialize:	
  2899                           ;psect for function _LIN_Slave_Initialize
  2900                           
  2901     0618                     l2107:	
  2902                           ;incstack = 0
  2903                           ; Regs used in _LIN_Slave_Initialize: [wreg+status,2+status,0+pclath+cstack]
  2904                           
  2905                           
  2906                           ;mcc_generated_files/LINDrivers/lin_app.c: 150:   LIN_init((sizeof(scheduleTable)/sizeof
      +                          (lin_rx_cmd_t)), scheduleTable, processLIN);
  2907     0618  308B               	movlw	low (_scheduleTable| (0+32768))
  2908     0619  00F3               	movwf	LIN_init@command
  2909     061A  3086               	movlw	high (_scheduleTable| (0+32768))
  2910     061B  00F4               	movwf	LIN_init@command+1
  2911     061C  306C               	movlw	low _processLIN
  2912     061D  00F5               	movwf	LIN_init@processData
  2913     061E  3001               	movlw	high _processLIN
  2914     061F  00F6               	movwf	LIN_init@processData+1
  2915     0620  3001               	movlw	1
  2916     0621  3185  259D  3186   	fcall	_LIN_init
  2917     0624                     l81:
  2918     0624  0008               	return
  2919     0625                     __end_of_LIN_Slave_Initialize:
  2920                           
  2921                           	psect	text9
  2922     059D                     __ptext9:	
  2923 ;; *************** function _LIN_init *****************
  2924 ;; Defined at:
  2925 ;;		line 61 in file "mcc_generated_files/LINDrivers/lin_slave.c"
  2926 ;; Parameters:    Size  Location     Type
  2927 ;;  tableLength     1    wreg     unsigned char 
  2928 ;;  command         2    3[COMMON] const PTR const struct .
  2929 ;;		 -> scheduleTable(4), 
  2930 ;;  processData     2    5[COMMON] PTR FTN()void 
  2931 ;;		 -> processLIN(1), 
  2932 ;; Auto vars:     Size  Location     Type
  2933 ;;  tableLength     1    7[COMMON] unsigned char 
  2934 ;; Return value:  Size  Location     Type
  2935 ;;                  1    wreg      void 
  2936 ;; Registers used:
  2937 ;;		wreg, status,2, status,0, pclath, cstack
  2938 ;; Tracked objects:
  2939 ;;		On entry : 0/0
  2940 ;;		On exit  : 0/0
  2941 ;;		Unchanged: 0/0
  2942 ;; Data sizes:     COMMON   BANK0   BANK1   BANK2   BANK3   BANK4   BANK5   BANK6
  2943 ;;      Params:         4       0       0       0       0       0       0       0
  2944 ;;      Locals:         1       0       0       0       0       0       0       0
  2945 ;;      Temps:          0       0       0       0       0       0       0       0
  2946 ;;      Totals:         5       0       0       0       0       0       0       0
  2947 ;;Total ram usage:        5 bytes
  2948 ;; Hardware stack levels used: 1
  2949 ;; Hardware stack levels required when called: 6
  2950 ;; This function calls:
  2951 ;;		_LIN_enableRx
  2952 ;;		_LIN_setTimerHandler
  2953 ;;		_LIN_stopTimer
  2954 ;; This function is called by:
  2955 ;;		_LIN_Slave_Initialize
  2956 ;; This function uses a non-reentrant model
  2957 ;;
  2958                           
  2959     059D                     _LIN_init:	
  2960                           ;psect for function _LIN_init
  2961                           
  2962                           
  2963                           ;incstack = 0
  2964                           ; Regs used in _LIN_init: [wreg+status,2+status,0+pclath+cstack]
  2965                           ;LIN_init@tableLength stored from wreg
  2966     059D  00F7               	movwf	LIN_init@tableLength
  2967     059E                     l1963:
  2968                           
  2969                           ;mcc_generated_files/LINDrivers/lin_slave.c: 61: void LIN_init(uint8_t tableLength, cons
      +                          t lin_rx_cmd_t *const command,;mcc_generated_files/LINDrivers/lin_slave.c: 62:          
      +                               void (*processData)(void)) {;mcc_generated_files/LINDrivers/lin_slave.c: 63:   LIN_
      +                          rxCommand = command;
  2970     059E  0874               	movf	LIN_init@command+1,w
  2971     059F  0020               	movlb	0	; select bank0
  2972     05A0  00BD               	movwf	_LIN_rxCommand+1
  2973     05A1  0873               	movf	LIN_init@command,w
  2974     05A2  00BC               	movwf	_LIN_rxCommand
  2975                           
  2976                           ;mcc_generated_files/LINDrivers/lin_slave.c: 64:   LIN_rxCommandLength = tableLength;
  2977     05A3  0877               	movf	LIN_init@tableLength,w
  2978     05A4  00CA               	movwf	_LIN_rxCommandLength
  2979                           
  2980                           ;mcc_generated_files/LINDrivers/lin_slave.c: 65:   LIN_processData = processData;
  2981     05A5  0876               	movf	LIN_init@processData+1,w
  2982     05A6  00BF               	movwf	_LIN_processData+1
  2983     05A7  0875               	movf	LIN_init@processData,w
  2984     05A8  00BE               	movwf	_LIN_processData
  2985     05A9                     l1965:
  2986                           
  2987                           ;mcc_generated_files/LINDrivers/lin_slave.c: 66:   LIN_stopTimer();
  2988     05A9  3186  2693  3185   	fcall	_LIN_stopTimer
  2989     05AC                     l1967:
  2990                           
  2991                           ;mcc_generated_files/LINDrivers/lin_slave.c: 67:   LIN_enableRx();
  2992     05AC  3186  267C  3185   	fcall	_LIN_enableRx
  2993     05AF                     l1969:
  2994                           
  2995                           ;mcc_generated_files/LINDrivers/lin_slave.c: 68:   LIN_setTimerHandler();
  2996     05AF  3186  2645  3185   	fcall	_LIN_setTimerHandler
  2997     05B2                     l184:
  2998     05B2  0008               	return
  2999     05B3                     __end_of_LIN_init:
  3000                           
  3001                           	psect	text10
  3002     0645                     __ptext10:	
  3003 ;; *************** function _LIN_setTimerHandler *****************
  3004 ;; Defined at:
  3005 ;;		line 330 in file "mcc_generated_files/LINDrivers/lin_slave.c"
  3006 ;; Parameters:    Size  Location     Type
  3007 ;;		None
  3008 ;; Auto vars:     Size  Location     Type
  3009 ;;		None
  3010 ;; Return value:  Size  Location     Type
  3011 ;;                  1    wreg      void 
  3012 ;; Registers used:
  3013 ;;		wreg, status,2, status,0, pclath, cstack
  3014 ;; Tracked objects:
  3015 ;;		On entry : 0/0
  3016 ;;		On exit  : 0/0
  3017 ;;		Unchanged: 0/0
  3018 ;; Data sizes:     COMMON   BANK0   BANK1   BANK2   BANK3   BANK4   BANK5   BANK6
  3019 ;;      Params:         0       0       0       0       0       0       0       0
  3020 ;;      Locals:         0       0       0       0       0       0       0       0
  3021 ;;      Temps:          0       0       0       0       0       0       0       0
  3022 ;;      Totals:         0       0       0       0       0       0       0       0
  3023 ;;Total ram usage:        0 bytes
  3024 ;; Hardware stack levels used: 1
  3025 ;; Hardware stack levels required when called: 5
  3026 ;; This function calls:
  3027 ;;		_TMR0_SetInterruptHandler
  3028 ;; This function is called by:
  3029 ;;		_LIN_init
  3030 ;; This function uses a non-reentrant model
  3031 ;;
  3032                           
  3033     0645                     _LIN_setTimerHandler:	
  3034                           ;psect for function _LIN_setTimerHandler
  3035                           
  3036     0645                     l1907:	
  3037                           ;incstack = 0
  3038                           ; Regs used in _LIN_setTimerHandler: [wreg+status,2+status,0+pclath+cstack]
  3039                           
  3040     0645  300A               	movlw	low _LIN_timerHandler
  3041     0646  00F1               	movwf	TMR0_SetInterruptHandler@InterruptHandler
  3042     0647  3006               	movlw	high _LIN_timerHandler
  3043     0648  00F2               	movwf	TMR0_SetInterruptHandler@InterruptHandler+1
  3044     0649  3186  2653  3186   	fcall	_TMR0_SetInterruptHandler
  3045     064C                     l278:
  3046     064C  0008               	return
  3047     064D                     __end_of_LIN_setTimerHandler:
  3048                           
  3049                           	psect	text11
  3050     0653                     __ptext11:	
  3051 ;; *************** function _TMR0_SetInterruptHandler *****************
  3052 ;; Defined at:
  3053 ;;		line 127 in file "mcc_generated_files/tmr0.c"
  3054 ;; Parameters:    Size  Location     Type
  3055 ;;  InterruptHan    2    1[COMMON] PTR FTN()void 
  3056 ;;		 -> TMR0_DefaultInterruptHandler(1), LIN_timerHandler(1), 
  3057 ;; Auto vars:     Size  Location     Type
  3058 ;;		None
  3059 ;; Return value:  Size  Location     Type
  3060 ;;                  1    wreg      void 
  3061 ;; Registers used:
  3062 ;;		wreg
  3063 ;; Tracked objects:
  3064 ;;		On entry : 0/0
  3065 ;;		On exit  : 0/0
  3066 ;;		Unchanged: 0/0
  3067 ;; Data sizes:     COMMON   BANK0   BANK1   BANK2   BANK3   BANK4   BANK5   BANK6
  3068 ;;      Params:         2       0       0       0       0       0       0       0
  3069 ;;      Locals:         0       0       0       0       0       0       0       0
  3070 ;;      Temps:          0       0       0       0       0       0       0       0
  3071 ;;      Totals:         2       0       0       0       0       0       0       0
  3072 ;;Total ram usage:        2 bytes
  3073 ;; Hardware stack levels used: 1
  3074 ;; Hardware stack levels required when called: 4
  3075 ;; This function calls:
  3076 ;;		Nothing
  3077 ;; This function is called by:
  3078 ;;		_LIN_setTimerHandler
  3079 ;;		_TMR0_Initialize
  3080 ;; This function uses a non-reentrant model
  3081 ;;
  3082                           
  3083     0653                     _TMR0_SetInterruptHandler:	
  3084                           ;psect for function _TMR0_SetInterruptHandler
  3085                           
  3086     0653                     l1901:	
  3087                           ;incstack = 0
  3088                           ; Regs used in _TMR0_SetInterruptHandler: [wreg]
  3089                           
  3090                           
  3091                           ;mcc_generated_files/tmr0.c: 128:   TMR0_InterruptHandler = InterruptHandler;
  3092     0653  0872               	movf	TMR0_SetInterruptHandler@InterruptHandler+1,w
  3093     0654  0020               	movlb	0	; select bank0
  3094     0655  00B1               	movwf	_TMR0_InterruptHandler+1
  3095     0656  0871               	movf	TMR0_SetInterruptHandler@InterruptHandler,w
  3096     0657  00B0               	movwf	_TMR0_InterruptHandler
  3097     0658                     l507:
  3098     0658  0008               	return
  3099     0659                     __end_of_TMR0_SetInterruptHandler:
  3100                           
  3101                           	psect	text12
  3102     0396                     __ptext12:	
  3103 ;; *************** function _EUSART_Initialize *****************
  3104 ;; Defined at:
  3105 ;;		line 98 in file "mcc_generated_files/eusart.c"
  3106 ;; Parameters:    Size  Location     Type
  3107 ;;		None
  3108 ;; Auto vars:     Size  Location     Type
  3109 ;;		None
  3110 ;; Return value:  Size  Location     Type
  3111 ;;                  1    wreg      void 
  3112 ;; Registers used:
  3113 ;;		wreg, status,2, status,0, pclath, cstack
  3114 ;; Tracked objects:
  3115 ;;		On entry : 0/0
  3116 ;;		On exit  : 0/0
  3117 ;;		Unchanged: 0/0
  3118 ;; Data sizes:     COMMON   BANK0   BANK1   BANK2   BANK3   BANK4   BANK5   BANK6
  3119 ;;      Params:         0       0       0       0       0       0       0       0
  3120 ;;      Locals:         0       0       0       0       0       0       0       0
  3121 ;;      Temps:          0       0       0       0       0       0       0       0
  3122 ;;      Totals:         0       0       0       0       0       0       0       0
  3123 ;;Total ram usage:        0 bytes
  3124 ;; Hardware stack levels used: 1
  3125 ;; Hardware stack levels required when called: 5
  3126 ;; This function calls:
  3127 ;;		_EUSART_SetErrorHandler
  3128 ;;		_EUSART_SetFramingErrorHandler
  3129 ;;		_EUSART_SetOverrunErrorHandler
  3130 ;;		_EUSART_SetRxInterruptHandler
  3131 ;;		_EUSART_SetTxInterruptHandler
  3132 ;;		_EUSART_is_tx_done
  3133 ;;		_EUSART_is_tx_ready
  3134 ;; This function is called by:
  3135 ;;		_SYSTEM_Initialize
  3136 ;; This function uses a non-reentrant model
  3137 ;;
  3138                           
  3139     0396                     _EUSART_Initialize:	
  3140                           ;psect for function _EUSART_Initialize
  3141                           
  3142     0396                     l2277:	
  3143                           ;incstack = 0
  3144                           ; Regs used in _EUSART_Initialize: [wreg+status,2+status,0+pclath+cstack]
  3145                           
  3146                           
  3147                           ;mcc_generated_files/eusart.c: 101:     PIE1bits.RCIE = 0;
  3148     0396  0021               	movlb	1	; select bank1
  3149     0397  1291               	bcf	17,5	;volatile
  3150     0398                     l2279:
  3151                           
  3152                           ;mcc_generated_files/eusart.c: 102:     EUSART_SetRxInterruptHandler(EUSART_Receive_ISR)
      +                          ;
  3153     0398  30DA               	movlw	low _EUSART_Receive_ISR
  3154     0399  00F1               	movwf	EUSART_SetRxInterruptHandler@interruptHandler
  3155     039A  3003               	movlw	high _EUSART_Receive_ISR
  3156     039B  00F2               	movwf	EUSART_SetRxInterruptHandler@interruptHandler+1
  3157     039C  3186  265F  3183   	fcall	_EUSART_SetRxInterruptHandler
  3158     039F                     l2281:
  3159                           
  3160                           ;mcc_generated_files/eusart.c: 103:     PIE1bits.TXIE = 0;
  3161     039F  0021               	movlb	1	; select bank1
  3162     03A0  1211               	bcf	17,4	;volatile
  3163                           
  3164                           ;mcc_generated_files/eusart.c: 104:     EUSART_SetTxInterruptHandler(EUSART_Transmit_ISR
      +                          );
  3165     03A1  30DE               	movlw	low _EUSART_Transmit_ISR
  3166     03A2  00F1               	movwf	EUSART_SetTxInterruptHandler@interruptHandler
  3167     03A3  3004               	movlw	high _EUSART_Transmit_ISR
  3168     03A4  00F2               	movwf	EUSART_SetTxInterruptHandler@interruptHandler+1
  3169     03A5  3186  2659  3183   	fcall	_EUSART_SetTxInterruptHandler
  3170     03A8                     l2283:
  3171                           
  3172                           ;mcc_generated_files/eusart.c: 108:     BAUDCON = 0x19;
  3173     03A8  3019               	movlw	25
  3174     03A9  0023               	movlb	3	; select bank3
  3175     03AA  009F               	movwf	31	;volatile
  3176     03AB                     l2285:
  3177                           
  3178                           ;mcc_generated_files/eusart.c: 111:     RCSTA = 0x90;
  3179     03AB  3090               	movlw	144
  3180     03AC  009D               	movwf	29	;volatile
  3181     03AD                     l2287:
  3182                           
  3183                           ;mcc_generated_files/eusart.c: 114:     TXSTA = 0x24;
  3184     03AD  3024               	movlw	36
  3185     03AE  009E               	movwf	30	;volatile
  3186     03AF                     l2289:
  3187                           
  3188                           ;mcc_generated_files/eusart.c: 117:     SPBRGL = 0xFF;
  3189     03AF  30FF               	movlw	255
  3190     03B0  009B               	movwf	27	;volatile
  3191     03B1                     l2291:
  3192                           
  3193                           ;mcc_generated_files/eusart.c: 120:     SPBRGH = 0x02;
  3194     03B1  3002               	movlw	2
  3195     03B2  009C               	movwf	28	;volatile
  3196     03B3                     l2293:
  3197                           
  3198                           ;mcc_generated_files/eusart.c: 123:     EUSART_SetFramingErrorHandler(EUSART_DefaultFram
      +                          ingErrorHandler);
  3199     03B3  30D3               	movlw	low _EUSART_DefaultFramingErrorHandler
  3200     03B4  00F1               	movwf	EUSART_SetFramingErrorHandler@interruptHandler
  3201     03B5  3006               	movlw	high _EUSART_DefaultFramingErrorHandler
  3202     03B6  00F2               	movwf	EUSART_SetFramingErrorHandler@interruptHandler+1
  3203     03B7  3186  266B  3183   	fcall	_EUSART_SetFramingErrorHandler
  3204     03BA                     l2295:
  3205                           
  3206                           ;mcc_generated_files/eusart.c: 124:     EUSART_SetOverrunErrorHandler(EUSART_DefaultOver
      +                          runErrorHandler);
  3207     03BA  309B               	movlw	low _EUSART_DefaultOverrunErrorHandler
  3208     03BB  00F1               	movwf	EUSART_SetOverrunErrorHandler@interruptHandler
  3209     03BC  3006               	movlw	high _EUSART_DefaultOverrunErrorHandler
  3210     03BD  00F2               	movwf	EUSART_SetOverrunErrorHandler@interruptHandler+1
  3211     03BE  3186  2665  3183   	fcall	_EUSART_SetOverrunErrorHandler
  3212     03C1                     l2297:
  3213                           
  3214                           ;mcc_generated_files/eusart.c: 125:     EUSART_SetErrorHandler(EUSART_DefaultErrorHandle
      +                          r);
  3215     03C1  309F               	movlw	low _EUSART_DefaultErrorHandler
  3216     03C2  00F1               	movwf	EUSART_SetErrorHandler@interruptHandler
  3217     03C3  3006               	movlw	high _EUSART_DefaultErrorHandler
  3218     03C4  00F2               	movwf	EUSART_SetErrorHandler@interruptHandler+1
  3219     03C5  3186  2671  3183   	fcall	_EUSART_SetErrorHandler
  3220     03C8                     l2299:
  3221                           
  3222                           ;mcc_generated_files/eusart.c: 127:     eusartRxLastError.status = 0;
  3223     03C8  0020               	movlb	0	; select bank0
  3224     03C9  01C1               	clrf	_eusartRxLastError	;volatile
  3225     03CA                     l2301:
  3226                           
  3227                           ;mcc_generated_files/eusart.c: 130:     eusartTxHead = 0;
  3228     03CA  01C5               	clrf	_eusartTxHead	;volatile
  3229     03CB                     l2303:
  3230                           
  3231                           ;mcc_generated_files/eusart.c: 131:     eusartTxTail = 0;
  3232     03CB  01C4               	clrf	_eusartTxTail	;volatile
  3233     03CC                     l2305:
  3234                           
  3235                           ;mcc_generated_files/eusart.c: 132:     eusartTxBufferRemaining = sizeof(eusartTxBuffer)
      +                          ;
  3236     03CC  3008               	movlw	8
  3237     03CD  00C3               	movwf	_eusartTxBufferRemaining	;volatile
  3238                           
  3239                           ;mcc_generated_files/eusart.c: 134:     eusartRxHead = 0;
  3240     03CE  01FC               	clrf	_eusartRxHead	;volatile
  3241                           
  3242                           ;mcc_generated_files/eusart.c: 135:     eusartRxTail = 0;
  3243     03CF  01FB               	clrf	_eusartRxTail	;volatile
  3244                           
  3245                           ;mcc_generated_files/eusart.c: 136:     eusartRxCount = 0;
  3246     03D0  01C2               	clrf	_eusartRxCount	;volatile
  3247     03D1                     l2307:
  3248                           
  3249                           ;mcc_generated_files/eusart.c: 139:     PIE1bits.RCIE = 1;
  3250     03D1  0021               	movlb	1	; select bank1
  3251     03D2  1691               	bsf	17,5	;volatile
  3252     03D3                     l2309:
  3253                           
  3254                           ;mcc_generated_files/eusart.c: 142:     EUSART_is_tx_ready();
  3255     03D3  3186  26D1  3183   	fcall	_EUSART_is_tx_ready
  3256     03D6                     l2311:
  3257                           
  3258                           ;mcc_generated_files/eusart.c: 143:     EUSART_is_tx_done();
  3259     03D6  3186  26A6  3183   	fcall	_EUSART_is_tx_done
  3260     03D9                     l401:
  3261     03D9  0008               	return
  3262     03DA                     __end_of_EUSART_Initialize:
  3263                           
  3264                           	psect	text13
  3265     06D1                     __ptext13:	
  3266 ;; *************** function _EUSART_is_tx_ready *****************
  3267 ;; Defined at:
  3268 ;;		line 146 in file "mcc_generated_files/eusart.c"
  3269 ;; Parameters:    Size  Location     Type
  3270 ;;		None
  3271 ;; Auto vars:     Size  Location     Type
  3272 ;;		None
  3273 ;; Return value:  Size  Location     Type
  3274 ;;                  1    wreg      _Bool 
  3275 ;; Registers used:
  3276 ;;		None
  3277 ;; Tracked objects:
  3278 ;;		On entry : 0/0
  3279 ;;		On exit  : 0/0
  3280 ;;		Unchanged: 0/0
  3281 ;; Data sizes:     COMMON   BANK0   BANK1   BANK2   BANK3   BANK4   BANK5   BANK6
  3282 ;;      Params:         0       0       0       0       0       0       0       0
  3283 ;;      Locals:         0       0       0       0       0       0       0       0
  3284 ;;      Temps:          0       0       0       0       0       0       0       0
  3285 ;;      Totals:         0       0       0       0       0       0       0       0
  3286 ;;Total ram usage:        0 bytes
  3287 ;; Hardware stack levels used: 1
  3288 ;; Hardware stack levels required when called: 4
  3289 ;; This function calls:
  3290 ;;		Nothing
  3291 ;; This function is called by:
  3292 ;;		_EUSART_Initialize
  3293 ;; This function uses a non-reentrant model
  3294 ;;
  3295                           
  3296     06D1                     _EUSART_is_tx_ready:	
  3297                           ;psect for function _EUSART_is_tx_ready
  3298                           
  3299     06D1                     l2085:	
  3300                           ;incstack = 0
  3301                           ; Regs used in _EUSART_is_tx_ready: []
  3302                           
  3303     06D1                     l404:	
  3304                           ;mcc_generated_files/eusart.c: 148:     return (eusartTxBufferRemaining ? 1 : 0);;	Retur
      +                          n value of _EUSART_is_tx_ready is never used
  3305                           
  3306     06D1  0008               	return
  3307     06D2                     __end_of_EUSART_is_tx_ready:
  3308                           
  3309                           	psect	text14
  3310     06A6                     __ptext14:	
  3311 ;; *************** function _EUSART_is_tx_done *****************
  3312 ;; Defined at:
  3313 ;;		line 156 in file "mcc_generated_files/eusart.c"
  3314 ;; Parameters:    Size  Location     Type
  3315 ;;		None
  3316 ;; Auto vars:     Size  Location     Type
  3317 ;;		None
  3318 ;; Return value:  Size  Location     Type
  3319 ;;                  1    wreg      _Bool 
  3320 ;; Registers used:
  3321 ;;		wreg
  3322 ;; Tracked objects:
  3323 ;;		On entry : 0/0
  3324 ;;		On exit  : 0/0
  3325 ;;		Unchanged: 0/0
  3326 ;; Data sizes:     COMMON   BANK0   BANK1   BANK2   BANK3   BANK4   BANK5   BANK6
  3327 ;;      Params:         0       0       0       0       0       0       0       0
  3328 ;;      Locals:         0       0       0       0       0       0       0       0
  3329 ;;      Temps:          0       0       0       0       0       0       0       0
  3330 ;;      Totals:         0       0       0       0       0       0       0       0
  3331 ;;Total ram usage:        0 bytes
  3332 ;; Hardware stack levels used: 1
  3333 ;; Hardware stack levels required when called: 4
  3334 ;; This function calls:
  3335 ;;		Nothing
  3336 ;; This function is called by:
  3337 ;;		_EUSART_Initialize
  3338 ;; This function uses a non-reentrant model
  3339 ;;
  3340                           
  3341     06A6                     _EUSART_is_tx_done:	
  3342                           ;psect for function _EUSART_is_tx_done
  3343                           
  3344     06A6                     l2087:	
  3345                           ;incstack = 0
  3346                           ; Regs used in _EUSART_is_tx_done: [wreg]
  3347                           
  3348                           
  3349                           ;mcc_generated_files/eusart.c: 158:     return TXSTAbits.TRMT;;	Return value of _EUSART_
      +                          is_tx_done is never used
  3350     06A6  0023               	movlb	3	; select bank3
  3351     06A7  081E               	movf	30,w	;volatile
  3352     06A8                     l410:
  3353     06A8  0008               	return
  3354     06A9                     __end_of_EUSART_is_tx_done:
  3355                           
  3356                           	psect	text15
  3357     0659                     __ptext15:	
  3358 ;; *************** function _EUSART_SetTxInterruptHandler *****************
  3359 ;; Defined at:
  3360 ;;		line 308 in file "mcc_generated_files/eusart.c"
  3361 ;; Parameters:    Size  Location     Type
  3362 ;;  interruptHan    2    1[COMMON] PTR FTN()void 
  3363 ;;		 -> EUSART_Transmit_ISR(1), 
  3364 ;; Auto vars:     Size  Location     Type
  3365 ;;		None
  3366 ;; Return value:  Size  Location     Type
  3367 ;;                  1    wreg      void 
  3368 ;; Registers used:
  3369 ;;		wreg
  3370 ;; Tracked objects:
  3371 ;;		On entry : 0/0
  3372 ;;		On exit  : 0/0
  3373 ;;		Unchanged: 0/0
  3374 ;; Data sizes:     COMMON   BANK0   BANK1   BANK2   BANK3   BANK4   BANK5   BANK6
  3375 ;;      Params:         2       0       0       0       0       0       0       0
  3376 ;;      Locals:         0       0       0       0       0       0       0       0
  3377 ;;      Temps:          0       0       0       0       0       0       0       0
  3378 ;;      Totals:         2       0       0       0       0       0       0       0
  3379 ;;Total ram usage:        2 bytes
  3380 ;; Hardware stack levels used: 1
  3381 ;; Hardware stack levels required when called: 4
  3382 ;; This function calls:
  3383 ;;		Nothing
  3384 ;; This function is called by:
  3385 ;;		_EUSART_Initialize
  3386 ;; This function uses a non-reentrant model
  3387 ;;
  3388                           
  3389     0659                     _EUSART_SetTxInterruptHandler:	
  3390                           ;psect for function _EUSART_SetTxInterruptHandler
  3391                           
  3392     0659                     l2077:	
  3393                           ;incstack = 0
  3394                           ; Regs used in _EUSART_SetTxInterruptHandler: [wreg]
  3395                           
  3396                           
  3397                           ;mcc_generated_files/eusart.c: 309:     EUSART_TxDefaultInterruptHandler = interruptHand
      +                          ler;
  3398     0659  0872               	movf	EUSART_SetTxInterruptHandler@interruptHandler+1,w
  3399     065A  0020               	movlb	0	; select bank0
  3400     065B  00BB               	movwf	_EUSART_TxDefaultInterruptHandler+1
  3401     065C  0871               	movf	EUSART_SetTxInterruptHandler@interruptHandler,w
  3402     065D  00BA               	movwf	_EUSART_TxDefaultInterruptHandler
  3403     065E                     l467:
  3404     065E  0008               	return
  3405     065F                     __end_of_EUSART_SetTxInterruptHandler:
  3406                           
  3407                           	psect	text16
  3408     065F                     __ptext16:	
  3409 ;; *************** function _EUSART_SetRxInterruptHandler *****************
  3410 ;; Defined at:
  3411 ;;		line 312 in file "mcc_generated_files/eusart.c"
  3412 ;; Parameters:    Size  Location     Type
  3413 ;;  interruptHan    2    1[COMMON] PTR FTN()void 
  3414 ;;		 -> EUSART_Receive_ISR(1), 
  3415 ;; Auto vars:     Size  Location     Type
  3416 ;;		None
  3417 ;; Return value:  Size  Location     Type
  3418 ;;                  1    wreg      void 
  3419 ;; Registers used:
  3420 ;;		wreg
  3421 ;; Tracked objects:
  3422 ;;		On entry : 0/0
  3423 ;;		On exit  : 0/0
  3424 ;;		Unchanged: 0/0
  3425 ;; Data sizes:     COMMON   BANK0   BANK1   BANK2   BANK3   BANK4   BANK5   BANK6
  3426 ;;      Params:         2       0       0       0       0       0       0       0
  3427 ;;      Locals:         0       0       0       0       0       0       0       0
  3428 ;;      Temps:          0       0       0       0       0       0       0       0
  3429 ;;      Totals:         2       0       0       0       0       0       0       0
  3430 ;;Total ram usage:        2 bytes
  3431 ;; Hardware stack levels used: 1
  3432 ;; Hardware stack levels required when called: 4
  3433 ;; This function calls:
  3434 ;;		Nothing
  3435 ;; This function is called by:
  3436 ;;		_EUSART_Initialize
  3437 ;; This function uses a non-reentrant model
  3438 ;;
  3439                           
  3440     065F                     _EUSART_SetRxInterruptHandler:	
  3441                           ;psect for function _EUSART_SetRxInterruptHandler
  3442                           
  3443     065F                     l2075:	
  3444                           ;incstack = 0
  3445                           ; Regs used in _EUSART_SetRxInterruptHandler: [wreg]
  3446                           
  3447                           
  3448                           ;mcc_generated_files/eusart.c: 313:     EUSART_RxDefaultInterruptHandler = interruptHand
      +                          ler;
  3449     065F  0872               	movf	EUSART_SetRxInterruptHandler@interruptHandler+1,w
  3450     0660  0020               	movlb	0	; select bank0
  3451     0661  00B9               	movwf	_EUSART_RxDefaultInterruptHandler+1
  3452     0662  0871               	movf	EUSART_SetRxInterruptHandler@interruptHandler,w
  3453     0663  00B8               	movwf	_EUSART_RxDefaultInterruptHandler
  3454     0664                     l470:
  3455     0664  0008               	return
  3456     0665                     __end_of_EUSART_SetRxInterruptHandler:
  3457                           
  3458                           	psect	text17
  3459     0665                     __ptext17:	
  3460 ;; *************** function _EUSART_SetOverrunErrorHandler *****************
  3461 ;; Defined at:
  3462 ;;		line 300 in file "mcc_generated_files/eusart.c"
  3463 ;; Parameters:    Size  Location     Type
  3464 ;;  interruptHan    2    1[COMMON] PTR FTN()void 
  3465 ;;		 -> EUSART_DefaultOverrunErrorHandler(1), 
  3466 ;; Auto vars:     Size  Location     Type
  3467 ;;		None
  3468 ;; Return value:  Size  Location     Type
  3469 ;;                  1    wreg      void 
  3470 ;; Registers used:
  3471 ;;		wreg
  3472 ;; Tracked objects:
  3473 ;;		On entry : 0/0
  3474 ;;		On exit  : 0/0
  3475 ;;		Unchanged: 0/0
  3476 ;; Data sizes:     COMMON   BANK0   BANK1   BANK2   BANK3   BANK4   BANK5   BANK6
  3477 ;;      Params:         2       0       0       0       0       0       0       0
  3478 ;;      Locals:         0       0       0       0       0       0       0       0
  3479 ;;      Temps:          0       0       0       0       0       0       0       0
  3480 ;;      Totals:         2       0       0       0       0       0       0       0
  3481 ;;Total ram usage:        2 bytes
  3482 ;; Hardware stack levels used: 1
  3483 ;; Hardware stack levels required when called: 4
  3484 ;; This function calls:
  3485 ;;		Nothing
  3486 ;; This function is called by:
  3487 ;;		_EUSART_Initialize
  3488 ;; This function uses a non-reentrant model
  3489 ;;
  3490                           
  3491     0665                     _EUSART_SetOverrunErrorHandler:	
  3492                           ;psect for function _EUSART_SetOverrunErrorHandler
  3493                           
  3494     0665                     l2081:	
  3495                           ;incstack = 0
  3496                           ; Regs used in _EUSART_SetOverrunErrorHandler: [wreg]
  3497                           
  3498                           
  3499                           ;mcc_generated_files/eusart.c: 301:     EUSART_OverrunErrorHandler = interruptHandler;
  3500     0665  0872               	movf	EUSART_SetOverrunErrorHandler@interruptHandler+1,w
  3501     0666  0020               	movlb	0	; select bank0
  3502     0667  00B5               	movwf	_EUSART_OverrunErrorHandler+1
  3503     0668  0871               	movf	EUSART_SetOverrunErrorHandler@interruptHandler,w
  3504     0669  00B4               	movwf	_EUSART_OverrunErrorHandler
  3505     066A                     l461:
  3506     066A  0008               	return
  3507     066B                     __end_of_EUSART_SetOverrunErrorHandler:
  3508                           
  3509                           	psect	text18
  3510     066B                     __ptext18:	
  3511 ;; *************** function _EUSART_SetFramingErrorHandler *****************
  3512 ;; Defined at:
  3513 ;;		line 296 in file "mcc_generated_files/eusart.c"
  3514 ;; Parameters:    Size  Location     Type
  3515 ;;  interruptHan    2    1[COMMON] PTR FTN()void 
  3516 ;;		 -> EUSART_DefaultFramingErrorHandler(1), 
  3517 ;; Auto vars:     Size  Location     Type
  3518 ;;		None
  3519 ;; Return value:  Size  Location     Type
  3520 ;;                  1    wreg      void 
  3521 ;; Registers used:
  3522 ;;		wreg
  3523 ;; Tracked objects:
  3524 ;;		On entry : 0/0
  3525 ;;		On exit  : 0/0
  3526 ;;		Unchanged: 0/0
  3527 ;; Data sizes:     COMMON   BANK0   BANK1   BANK2   BANK3   BANK4   BANK5   BANK6
  3528 ;;      Params:         2       0       0       0       0       0       0       0
  3529 ;;      Locals:         0       0       0       0       0       0       0       0
  3530 ;;      Temps:          0       0       0       0       0       0       0       0
  3531 ;;      Totals:         2       0       0       0       0       0       0       0
  3532 ;;Total ram usage:        2 bytes
  3533 ;; Hardware stack levels used: 1
  3534 ;; Hardware stack levels required when called: 4
  3535 ;; This function calls:
  3536 ;;		Nothing
  3537 ;; This function is called by:
  3538 ;;		_EUSART_Initialize
  3539 ;; This function uses a non-reentrant model
  3540 ;;
  3541                           
  3542     066B                     _EUSART_SetFramingErrorHandler:	
  3543                           ;psect for function _EUSART_SetFramingErrorHandler
  3544                           
  3545     066B                     l2079:	
  3546                           ;incstack = 0
  3547                           ; Regs used in _EUSART_SetFramingErrorHandler: [wreg]
  3548                           
  3549                           
  3550                           ;mcc_generated_files/eusart.c: 297:     EUSART_FramingErrorHandler = interruptHandler;
  3551     066B  0872               	movf	EUSART_SetFramingErrorHandler@interruptHandler+1,w
  3552     066C  0020               	movlb	0	; select bank0
  3553     066D  00B7               	movwf	_EUSART_FramingErrorHandler+1
  3554     066E  0871               	movf	EUSART_SetFramingErrorHandler@interruptHandler,w
  3555     066F  00B6               	movwf	_EUSART_FramingErrorHandler
  3556     0670                     l458:
  3557     0670  0008               	return
  3558     0671                     __end_of_EUSART_SetFramingErrorHandler:
  3559                           
  3560                           	psect	text19
  3561     0671                     __ptext19:	
  3562 ;; *************** function _EUSART_SetErrorHandler *****************
  3563 ;; Defined at:
  3564 ;;		line 304 in file "mcc_generated_files/eusart.c"
  3565 ;; Parameters:    Size  Location     Type
  3566 ;;  interruptHan    2    1[COMMON] PTR FTN()void 
  3567 ;;		 -> EUSART_DefaultErrorHandler(1), 
  3568 ;; Auto vars:     Size  Location     Type
  3569 ;;		None
  3570 ;; Return value:  Size  Location     Type
  3571 ;;                  1    wreg      void 
  3572 ;; Registers used:
  3573 ;;		wreg
  3574 ;; Tracked objects:
  3575 ;;		On entry : 0/0
  3576 ;;		On exit  : 0/0
  3577 ;;		Unchanged: 0/0
  3578 ;; Data sizes:     COMMON   BANK0   BANK1   BANK2   BANK3   BANK4   BANK5   BANK6
  3579 ;;      Params:         2       0       0       0       0       0       0       0
  3580 ;;      Locals:         0       0       0       0       0       0       0       0
  3581 ;;      Temps:          0       0       0       0       0       0       0       0
  3582 ;;      Totals:         2       0       0       0       0       0       0       0
  3583 ;;Total ram usage:        2 bytes
  3584 ;; Hardware stack levels used: 1
  3585 ;; Hardware stack levels required when called: 4
  3586 ;; This function calls:
  3587 ;;		Nothing
  3588 ;; This function is called by:
  3589 ;;		_EUSART_Initialize
  3590 ;; This function uses a non-reentrant model
  3591 ;;
  3592                           
  3593     0671                     _EUSART_SetErrorHandler:	
  3594                           ;psect for function _EUSART_SetErrorHandler
  3595                           
  3596     0671                     l2083:	
  3597                           ;incstack = 0
  3598                           ; Regs used in _EUSART_SetErrorHandler: [wreg]
  3599                           
  3600                           
  3601                           ;mcc_generated_files/eusart.c: 305:     EUSART_ErrorHandler = interruptHandler;
  3602     0671  0872               	movf	EUSART_SetErrorHandler@interruptHandler+1,w
  3603     0672  0020               	movlb	0	; select bank0
  3604     0673  00B3               	movwf	_EUSART_ErrorHandler+1
  3605     0674  0871               	movf	EUSART_SetErrorHandler@interruptHandler,w
  3606     0675  00B2               	movwf	_EUSART_ErrorHandler
  3607     0676                     l464:
  3608     0676  0008               	return
  3609     0677                     __end_of_EUSART_SetErrorHandler:
  3610                           
  3611                           	psect	text20
  3612     0054                     __ptext20:	
  3613 ;; *************** function _LIN_handler *****************
  3614 ;; Defined at:
  3615 ;;		line 98 in file "mcc_generated_files/LINDrivers/lin_slave.c"
  3616 ;; Parameters:    Size  Location     Type
  3617 ;;		None
  3618 ;; Auto vars:     Size  Location     Type
  3619 ;;		None
  3620 ;; Return value:  Size  Location     Type
  3621 ;;                  1    wreg      enum E36
  3622 ;; Registers used:
  3623 ;;		wreg, fsr0l, fsr0h, fsr1l, fsr1h, status,2, status,0, pclath, cstack
  3624 ;; Tracked objects:
  3625 ;;		On entry : 0/0
  3626 ;;		On exit  : 0/0
  3627 ;;		Unchanged: 0/0
  3628 ;; Data sizes:     COMMON   BANK0   BANK1   BANK2   BANK3   BANK4   BANK5   BANK6
  3629 ;;      Params:         0       0       0       0       0       0       0       0
  3630 ;;      Locals:         0       0       0       0       0       0       0       0
  3631 ;;      Temps:          0       2       0       0       0       0       0       0
  3632 ;;      Totals:         0       2       0       0       0       0       0       0
  3633 ;;Total ram usage:        2 bytes
  3634 ;; Hardware stack levels used: 1
  3635 ;; Hardware stack levels required when called: 7
  3636 ;; This function calls:
  3637 ;;		NULL
  3638 ;;		_EUSART_Read
  3639 ;;		_EUSART_is_rx_ready
  3640 ;;		_LIN_breakCheck
  3641 ;;		_LIN_checkPID
  3642 ;;		_LIN_disableRx
  3643 ;;		_LIN_enableRx
  3644 ;;		_LIN_getChecksum
  3645 ;;		_LIN_getFromTable
  3646 ;;		_LIN_queuePacket
  3647 ;;		_LIN_startTimer
  3648 ;;		_LIN_stopTimer
  3649 ;;		_memset
  3650 ;;		_processLIN
  3651 ;; This function is called by:
  3652 ;;		_main
  3653 ;; This function uses a non-reentrant model
  3654 ;;
  3655                           
  3656     0054                     _LIN_handler:	
  3657                           ;psect for function _LIN_handler
  3658                           
  3659     0054                     l2593:	
  3660                           ;incstack = 0
  3661                           ; Regs used in _LIN_handler: [wreg-fsr1h+status,2+status,0+pclath+cstack]
  3662                           
  3663                           
  3664                           ;mcc_generated_files/LINDrivers/lin_slave.c: 100:   static lin_rx_state_t LIN_rxState = 
      +                          LIN_RX_IDLE;;mcc_generated_files/LINDrivers/lin_slave.c: 101:   static uint8_t rxDataInd
      +                          ex = 0;;mcc_generated_files/LINDrivers/lin_slave.c: 104:   if (LIN_rxInProgress == 1) {
  3665     0054  0020               	movlb	0	; select bank0
  3666     0055  034B               	decf	_LIN_rxInProgress,w
  3667     0056  1D03               	btfss	3,2
  3668     0057  2859               	goto	u2041
  3669     0058  285A               	goto	u2040
  3670     0059                     u2041:
  3671     0059  2943               	goto	l2685
  3672     005A                     u2040:
  3673     005A                     l2595:
  3674                           
  3675                           ;mcc_generated_files/LINDrivers/lin_slave.c: 105:     if (LIN_timerRunning == 0) {
  3676     005A  0849               	movf	_LIN_timerRunning,w
  3677     005B  1D03               	btfss	3,2
  3678     005C  285E               	goto	u2051
  3679     005D  285F               	goto	u2050
  3680     005E                     u2051:
  3681     005E  2943               	goto	l2685
  3682     005F                     u2050:
  3683     005F                     l2597:
  3684                           
  3685                           ;mcc_generated_files/LINDrivers/lin_slave.c: 107:       LIN_rxState = LIN_RX_ERROR;
  3686     005F  3008               	movlw	8
  3687     0060  00C7               	movwf	LIN_handler@LIN_rxState
  3688     0061  2943               	goto	l2685
  3689     0062                     l2599:
  3690                           
  3691                           ;mcc_generated_files/LINDrivers/lin_slave.c: 114:     if (EUSART_is_rx_ready() > 0) {
  3692     0062  3186  263C  3180   	fcall	_EUSART_is_rx_ready
  3693     0065  3A00               	xorlw	0
  3694     0066  1903               	skipnz
  3695     0067  2869               	goto	u2061
  3696     0068  286A               	goto	u2060
  3697     0069                     u2061:
  3698     0069  296B               	goto	l230
  3699     006A                     u2060:
  3700     006A                     l2601:
  3701                           
  3702                           ;mcc_generated_files/LINDrivers/lin_slave.c: 116:       LIN_startTimer(15);
  3703     006A  300F               	movlw	15
  3704     006B  3186  2631  3180   	fcall	_LIN_startTimer
  3705     006E                     l2603:
  3706                           
  3707                           ;mcc_generated_files/LINDrivers/lin_slave.c: 117:       LIN_rxInProgress = 1;
  3708     006E  0020               	movlb	0	; select bank0
  3709     006F  01CB               	clrf	_LIN_rxInProgress
  3710     0070  0ACB               	incf	_LIN_rxInProgress,f
  3711     0071                     l2605:
  3712                           
  3713                           ;mcc_generated_files/LINDrivers/lin_slave.c: 118:       LIN_rxState = LIN_RX_BREAK;
  3714     0071  01C7               	clrf	LIN_handler@LIN_rxState
  3715     0072  0AC7               	incf	LIN_handler@LIN_rxState,f
  3716     0073  296B               	goto	l230
  3717     0074                     l2607:
  3718                           
  3719                           ;mcc_generated_files/LINDrivers/lin_slave.c: 123:     if (EUSART_is_rx_ready() > 0) {
  3720     0074  3186  263C  3180   	fcall	_EUSART_is_rx_ready
  3721     0077  3A00               	xorlw	0
  3722     0078  1903               	skipnz
  3723     0079  287B               	goto	u2071
  3724     007A  287C               	goto	u2070
  3725     007B                     u2071:
  3726     007B  296B               	goto	l230
  3727     007C                     u2070:
  3728     007C                     l2609:
  3729                           
  3730                           ;mcc_generated_files/LINDrivers/lin_slave.c: 124:       if (LIN_breakCheck() == 1) {
  3731     007C  3185  25C6  3180   	fcall	_LIN_breakCheck
  3732     007F  3A01               	xorlw	1
  3733     0080  1D03               	skipz
  3734     0081  2883               	goto	u2081
  3735     0082  2884               	goto	u2080
  3736     0083                     u2081:
  3737     0083  2888               	goto	l2613
  3738     0084                     u2080:
  3739     0084                     l2611:
  3740                           
  3741                           ;mcc_generated_files/LINDrivers/lin_slave.c: 125:         LIN_rxState = LIN_RX_SYNC;
  3742     0084  3002               	movlw	2
  3743     0085  0020               	movlb	0	; select bank0
  3744     0086  00C7               	movwf	LIN_handler@LIN_rxState
  3745                           
  3746                           ;mcc_generated_files/LINDrivers/lin_slave.c: 126:       } else {
  3747     0087  296B               	goto	l230
  3748     0088                     l2613:
  3749                           
  3750                           ;mcc_generated_files/LINDrivers/lin_slave.c: 127:         LIN_rxState = LIN_RX_ERROR;
  3751     0088  3008               	movlw	8
  3752     0089  0020               	movlb	0	; select bank0
  3753     008A  00C7               	movwf	LIN_handler@LIN_rxState
  3754     008B  296B               	goto	l230
  3755     008C                     l2615:
  3756                           
  3757                           ;mcc_generated_files/LINDrivers/lin_slave.c: 133:     if (EUSART_is_rx_ready() > 0) {
  3758     008C  3186  263C  3180   	fcall	_EUSART_is_rx_ready
  3759     008F  3A00               	xorlw	0
  3760     0090  1903               	skipnz
  3761     0091  2893               	goto	u2091
  3762     0092  2894               	goto	u2090
  3763     0093                     u2091:
  3764     0093  296B               	goto	l230
  3765     0094                     u2090:
  3766     0094                     l2617:
  3767                           
  3768                           ;mcc_generated_files/LINDrivers/lin_slave.c: 134:       if (EUSART_Read() == 0x55) {
  3769     0094  3184  246E  3180   	fcall	_EUSART_Read
  3770     0097  3A55               	xorlw	85
  3771     0098  1D03               	skipz
  3772     0099  289B               	goto	u2101
  3773     009A  289C               	goto	u2100
  3774     009B                     u2101:
  3775     009B  2888               	goto	l2613
  3776     009C                     u2100:
  3777     009C                     l2619:
  3778                           
  3779                           ;mcc_generated_files/LINDrivers/lin_slave.c: 135:         LIN_rxState = LIN_RX_PID;
  3780     009C  3003               	movlw	3
  3781     009D  0020               	movlb	0	; select bank0
  3782     009E  00C7               	movwf	LIN_handler@LIN_rxState
  3783                           
  3784                           ;mcc_generated_files/LINDrivers/lin_slave.c: 136:       } else {
  3785     009F  296B               	goto	l230
  3786     00A0                     l2623:
  3787                           
  3788                           ;mcc_generated_files/LINDrivers/lin_slave.c: 144:     if (EUSART_is_rx_ready() > 0) {
  3789     00A0  3186  263C  3180   	fcall	_EUSART_is_rx_ready
  3790     00A3  3A00               	xorlw	0
  3791     00A4  1903               	skipnz
  3792     00A5  28A7               	goto	u2111
  3793     00A6  28A8               	goto	u2110
  3794     00A7                     u2111:
  3795     00A7  296B               	goto	l230
  3796     00A8                     u2110:
  3797     00A8                     l2625:
  3798                           
  3799                           ;mcc_generated_files/LINDrivers/lin_slave.c: 145:       LIN_packet.PID = EUSART_Read();
  3800     00A8  3184  246E  3180   	fcall	_EUSART_Read
  3801     00AB  0020               	movlb	0	; select bank0
  3802     00AC  00CF               	movwf	_LIN_packet
  3803     00AD                     l2627:
  3804                           
  3805                           ;mcc_generated_files/LINDrivers/lin_slave.c: 148:       if (LIN_checkPID(LIN_packet.PID)
      +                           == 0) {
  3806     00AD  084F               	movf	_LIN_packet,w
  3807     00AE  3185  256B  3180   	fcall	_LIN_checkPID
  3808     00B1  3A00               	xorlw	0
  3809     00B2  1D03               	skipz
  3810     00B3  28B5               	goto	u2121
  3811     00B4  28B6               	goto	u2120
  3812     00B5                     u2121:
  3813     00B5  28B7               	goto	l2631
  3814     00B6                     u2120:
  3815     00B6  2888               	goto	l2613
  3816     00B7                     l2631:
  3817                           
  3818                           ;mcc_generated_files/LINDrivers/lin_slave.c: 153:       LIN_packet.type = LIN_getFromTab
      +                          le(LIN_packet.PID, TYPE);
  3819     00B7  01F1               	clrf	LIN_getFromTable@param
  3820     00B8  0AF1               	incf	LIN_getFromTable@param,f
  3821     00B9  0020               	movlb	0	; select bank0
  3822     00BA  084F               	movf	_LIN_packet,w
  3823     00BB  3183  232C  3180   	fcall	_LIN_getFromTable
  3824     00BE  0020               	movlb	0	; select bank0
  3825     00BF  00D9               	movwf	_LIN_packet+10
  3826     00C0                     l2633:
  3827                           
  3828                           ;mcc_generated_files/LINDrivers/lin_slave.c: 154:       if (LIN_packet.type == RECEIVE) 
      +                          {
  3829     00C0  0359               	decf	_LIN_packet+10,w
  3830     00C1  1D03               	btfss	3,2
  3831     00C2  28C4               	goto	u2131
  3832     00C3  28C5               	goto	u2130
  3833     00C4                     u2131:
  3834     00C4  28D0               	goto	l2639
  3835     00C5                     u2130:
  3836     00C5                     l2635:
  3837                           
  3838                           ;mcc_generated_files/LINDrivers/lin_slave.c: 156:         LIN_packet.length = LIN_getFro
      +                          mTable(LIN_packet.PID, LENGTH);
  3839     00C5  3002               	movlw	2
  3840     00C6  00F1               	movwf	LIN_getFromTable@param
  3841     00C7  084F               	movf	_LIN_packet,w
  3842     00C8  3183  232C  3180   	fcall	_LIN_getFromTable
  3843     00CB  0020               	movlb	0	; select bank0
  3844     00CC  00DA               	movwf	_LIN_packet+11
  3845     00CD                     l2637:
  3846                           
  3847                           ;mcc_generated_files/LINDrivers/lin_slave.c: 157:         LIN_rxState = LIN_RX_DATA;
  3848     00CD  3004               	movlw	4
  3849     00CE  00C7               	movwf	LIN_handler@LIN_rxState
  3850                           
  3851                           ;mcc_generated_files/LINDrivers/lin_slave.c: 158:       } else {
  3852     00CF  296B               	goto	l230
  3853     00D0                     l2639:
  3854                           
  3855                           ;mcc_generated_files/LINDrivers/lin_slave.c: 159:         LIN_disableRx();
  3856     00D0  3186  2681  3180   	fcall	_LIN_disableRx
  3857     00D3                     l2641:
  3858                           
  3859                           ;mcc_generated_files/LINDrivers/lin_slave.c: 160:         LIN_rxState = LIN_RX_TX_DATA;
  3860     00D3  3006               	movlw	6
  3861     00D4  0020               	movlb	0	; select bank0
  3862     00D5  00C7               	movwf	LIN_handler@LIN_rxState
  3863     00D6  296B               	goto	l230
  3864     00D7                     l2643:
  3865                           
  3866                           ;mcc_generated_files/LINDrivers/lin_slave.c: 166:     if (EUSART_is_rx_ready() > 0) {
  3867     00D7  3186  263C  3180   	fcall	_EUSART_is_rx_ready
  3868     00DA  3A00               	xorlw	0
  3869     00DB  1903               	skipnz
  3870     00DC  28DE               	goto	u2141
  3871     00DD  28DF               	goto	u2140
  3872     00DE                     u2141:
  3873     00DE  296B               	goto	l230
  3874     00DF                     u2140:
  3875     00DF                     l2645:
  3876                           
  3877                           ;mcc_generated_files/LINDrivers/lin_slave.c: 167:       LIN_packet.data[rxDataIndex] = E
      +                          USART_Read();
  3878     00DF  3184  246E  3180   	fcall	_EUSART_Read
  3879     00E2  0020               	movlb	0	; select bank0
  3880     00E3  00E7               	movwf	??_LIN_handler
  3881     00E4  0846               	movf	LIN_handler@rxDataIndex,w
  3882     00E5  3E50               	addlw	(low ((_LIN_packet| 0+1)))& (0+255)
  3883     00E6  0086               	movwf	6
  3884     00E7  0187               	clrf	7
  3885     00E8  0867               	movf	??_LIN_handler,w
  3886     00E9  0081               	movwf	1
  3887     00EA                     l2647:
  3888                           
  3889                           ;mcc_generated_files/LINDrivers/lin_slave.c: 168:       if (++rxDataIndex >= LIN_packet.
      +                          length) {
  3890     00EA  3001               	movlw	1
  3891     00EB  00E7               	movwf	??_LIN_handler
  3892     00EC  0867               	movf	??_LIN_handler,w
  3893     00ED  07C6               	addwf	LIN_handler@rxDataIndex,f
  3894     00EE  085A               	movf	_LIN_packet+11,w
  3895     00EF  0246               	subwf	LIN_handler@rxDataIndex,w
  3896     00F0  1C03               	skipc
  3897     00F1  28F3               	goto	u2151
  3898     00F2  28F4               	goto	u2150
  3899     00F3                     u2151:
  3900     00F3  296B               	goto	l230
  3901     00F4                     u2150:
  3902     00F4                     l2649:
  3903                           
  3904                           ;mcc_generated_files/LINDrivers/lin_slave.c: 170:         rxDataIndex = 0;
  3905     00F4  01C6               	clrf	LIN_handler@rxDataIndex
  3906     00F5                     l2651:
  3907                           
  3908                           ;mcc_generated_files/LINDrivers/lin_slave.c: 171:         LIN_rxState = LIN_RX_CHECKSUM;
  3909     00F5  3005               	movlw	5
  3910     00F6  00C7               	movwf	LIN_handler@LIN_rxState
  3911     00F7  296B               	goto	l230
  3912     00F8                     l2653:
  3913                           
  3914                           ;mcc_generated_files/LINDrivers/lin_slave.c: 177:     if (EUSART_is_rx_ready() > 0) {
  3915     00F8  3186  263C  3180   	fcall	_EUSART_is_rx_ready
  3916     00FB  3A00               	xorlw	0
  3917     00FC  1903               	skipnz
  3918     00FD  28FF               	goto	u2161
  3919     00FE  2900               	goto	u2160
  3920     00FF                     u2161:
  3921     00FF  296B               	goto	l230
  3922     0100                     u2160:
  3923     0100                     l2655:
  3924                           
  3925                           ;mcc_generated_files/LINDrivers/lin_slave.c: 178:       LIN_packet.checksum = EUSART_Rea
      +                          d();
  3926     0100  3184  246E  3180   	fcall	_EUSART_Read
  3927     0103  0020               	movlb	0	; select bank0
  3928     0104  00D8               	movwf	_LIN_packet+9
  3929                           
  3930                           ;mcc_generated_files/LINDrivers/lin_slave.c: 179:       if (LIN_packet.checksum !=
  3931     0105  084F               	movf	_LIN_packet,w
  3932     0106  00F1               	movwf	LIN_getChecksum@pid
  3933     0107  3050               	movlw	(low ((_LIN_packet| 0+1)))& (0+255)
  3934     0108  00F2               	movwf	LIN_getChecksum@data
  3935     0109  085A               	movf	_LIN_packet+11,w
  3936     010A  3184  2413  3180   	fcall	_LIN_getChecksum
  3937     010D  0020               	movlb	0	; select bank0
  3938     010E  0658               	xorwf	_LIN_packet+9,w
  3939     010F  1903               	skipnz
  3940     0110  2912               	goto	u2171
  3941     0111  2913               	goto	u2170
  3942     0112                     u2171:
  3943     0112  2914               	goto	l2659
  3944     0113                     u2170:
  3945     0113  2888               	goto	l2613
  3946     0114                     l2659:
  3947                           
  3948                           ;mcc_generated_files/LINDrivers/lin_slave.c: 184:         LIN_rxState = LIN_RX_RDY;
  3949     0114  3007               	movlw	7
  3950     0115  00C7               	movwf	LIN_handler@LIN_rxState
  3951     0116  296B               	goto	l230
  3952     0117                     l2661:
  3953                           
  3954                           ;mcc_generated_files/LINDrivers/lin_slave.c: 189:     LIN_queuePacket(LIN_packet.PID);
  3955     0117  084F               	movf	_LIN_packet,w
  3956     0118  3182  22C1  3180   	fcall	_LIN_queuePacket
  3957     011B                     l2663:
  3958                           
  3959                           ;mcc_generated_files/LINDrivers/lin_slave.c: 190:     LIN_rxState = LIN_RX_RDY;
  3960     011B  3007               	movlw	7
  3961     011C  0020               	movlb	0	; select bank0
  3962     011D  00C7               	movwf	LIN_handler@LIN_rxState
  3963     011E                     l2665:
  3964                           
  3965                           ;mcc_generated_files/LINDrivers/lin_slave.c: 192:     LIN_processData();
  3966     011E  083F               	movf	_LIN_processData+1,w
  3967     011F  008A               	movwf	10
  3968     0120  083E               	movf	_LIN_processData,w
  3969     0121  000A               	callw
  3970     0122  3180               	pagesel	$
  3971     0123                     l2667:
  3972                           
  3973                           ;mcc_generated_files/LINDrivers/lin_slave.c: 194:     LIN_stopTimer();
  3974     0123  3186  2693  3180   	fcall	_LIN_stopTimer
  3975     0126                     l2669:
  3976                           
  3977                           ;mcc_generated_files/LINDrivers/lin_slave.c: 195:     rxDataIndex = 0;
  3978     0126  0020               	movlb	0	; select bank0
  3979     0127  01C6               	clrf	LIN_handler@rxDataIndex
  3980     0128                     l2671:
  3981                           
  3982                           ;mcc_generated_files/LINDrivers/lin_slave.c: 196:     LIN_rxInProgress = 0;
  3983     0128  01CB               	clrf	_LIN_rxInProgress
  3984     0129                     l2673:
  3985                           
  3986                           ;mcc_generated_files/LINDrivers/lin_slave.c: 197:     memset(LIN_packet.rawPacket, 0,
  3987     0129  3000               	movlw	0
  3988     012A  00F1               	movwf	memset@c
  3989     012B  00F2               	movwf	memset@c+1
  3990     012C  300D               	movlw	13
  3991     012D  00F3               	movwf	memset@n
  3992     012E  3000               	movlw	0
  3993     012F  00F4               	movwf	memset@n+1
  3994     0130  304F               	movlw	(low (_LIN_packet| 0))& (0+255)
  3995     0131  3185  2551  3180   	fcall	_memset
  3996     0134                     l2675:
  3997                           
  3998                           ;mcc_generated_files/LINDrivers/lin_slave.c: 200:     if (TXSTAbits.TRMT) {
  3999     0134  0023               	movlb	3	; select bank3
  4000     0135  1C9E               	btfss	30,1	;volatile
  4001     0136  2938               	goto	u2181
  4002     0137  2939               	goto	u2180
  4003     0138                     u2181:
  4004     0138  293F               	goto	l2681
  4005     0139                     u2180:
  4006     0139                     l2677:
  4007                           
  4008                           ;mcc_generated_files/LINDrivers/lin_slave.c: 201:       LIN_enableRx();
  4009     0139  3186  267C  3180   	fcall	_LIN_enableRx
  4010     013C                     l2679:
  4011                           
  4012                           ;mcc_generated_files/LINDrivers/lin_slave.c: 202:       LIN_rxState = LIN_RX_IDLE;
  4013     013C  0020               	movlb	0	; select bank0
  4014     013D  01C7               	clrf	LIN_handler@LIN_rxState
  4015                           
  4016                           ;mcc_generated_files/LINDrivers/lin_slave.c: 203:     } else {
  4017     013E  296B               	goto	l230
  4018     013F                     l2681:
  4019                           
  4020                           ;mcc_generated_files/LINDrivers/lin_slave.c: 204:       LIN_rxState = LIN_RX_WAIT;
  4021     013F  3009               	movlw	9
  4022     0140  0020               	movlb	0	; select bank0
  4023     0141  00C7               	movwf	LIN_handler@LIN_rxState
  4024     0142  296B               	goto	l230
  4025     0143                     l2685:
  4026     0143  0847               	movf	LIN_handler@LIN_rxState,w
  4027     0144  00E7               	movwf	??_LIN_handler
  4028     0145  01E8               	clrf	??_LIN_handler+1
  4029                           
  4030                           ; Switch on 2 bytes has been partitioned into a top level switch of size 1, and 1 sub-sw
      +                          itches
  4031                           ; Switch size 1, requested type "simple"
  4032                           ; Number of cases is 1, Range of values is 0 to 0
  4033                           ; switch strategies available:
  4034                           ; Name         Instructions Cycles
  4035                           ; simple_byte            4     3 (average)
  4036                           ; direct_byte            8     6 (fixed)
  4037                           ; jumptable            260     6 (fixed)
  4038                           ;	Chosen strategy is simple_byte
  4039     0146  0868               	movf	??_LIN_handler+1,w
  4040     0147  3A00               	xorlw	0	; case 0
  4041     0148  1903               	skipnz
  4042     0149  294B               	goto	l2761
  4043     014A  296B               	goto	l230
  4044     014B                     l2761:
  4045                           
  4046                           ; Switch size 1, requested type "simple"
  4047                           ; Number of cases is 10, Range of values is 0 to 9
  4048                           ; switch strategies available:
  4049                           ; Name         Instructions Cycles
  4050                           ; direct_byte           26     6 (fixed)
  4051                           ; simple_byte           31    16 (average)
  4052                           ; jumptable            260     6 (fixed)
  4053                           ;	Chosen strategy is simple_byte
  4054     014B  0867               	movf	??_LIN_handler,w
  4055     014C  3A00               	xorlw	0	; case 0
  4056     014D  1903               	skipnz
  4057     014E  2862               	goto	l2599
  4058     014F  3A01               	xorlw	1	; case 1
  4059     0150  1903               	skipnz
  4060     0151  2874               	goto	l2607
  4061     0152  3A03               	xorlw	3	; case 2
  4062     0153  1903               	skipnz
  4063     0154  288C               	goto	l2615
  4064     0155  3A01               	xorlw	1	; case 3
  4065     0156  1903               	skipnz
  4066     0157  28A0               	goto	l2623
  4067     0158  3A07               	xorlw	7	; case 4
  4068     0159  1903               	skipnz
  4069     015A  28D7               	goto	l2643
  4070     015B  3A01               	xorlw	1	; case 5
  4071     015C  1903               	skipnz
  4072     015D  28F8               	goto	l2653
  4073     015E  3A03               	xorlw	3	; case 6
  4074     015F  1903               	skipnz
  4075     0160  2917               	goto	l2661
  4076     0161  3A01               	xorlw	1	; case 7
  4077     0162  1903               	skipnz
  4078     0163  291E               	goto	l2665
  4079     0164  3A0F               	xorlw	15	; case 8
  4080     0165  1903               	skipnz
  4081     0166  2923               	goto	l2667
  4082     0167  3A01               	xorlw	1	; case 9
  4083     0168  1903               	skipnz
  4084     0169  2934               	goto	l2675
  4085     016A  296B               	goto	l230
  4086     016B                     l230:
  4087     016B  0008               	return
  4088     016C                     __end_of_LIN_handler:
  4089                           
  4090                           	psect	text21
  4091     016C                     __ptext21:	
  4092 ;; *************** function _processLIN *****************
  4093 ;; Defined at:
  4094 ;;		line 154 in file "mcc_generated_files/LINDrivers/lin_app.c"
  4095 ;; Parameters:    Size  Location     Type
  4096 ;;		None
  4097 ;; Auto vars:     Size  Location     Type
  4098 ;;  tempRxData      8    1[BANK0 ] unsigned char [8]
  4099 ;;  cmd             1    0[BANK0 ] unsigned char 
  4100 ;; Return value:  Size  Location     Type
  4101 ;;                  1    wreg      void 
  4102 ;; Registers used:
  4103 ;;		wreg, fsr0l, fsr0h, fsr1l, fsr1h, status,2, status,0, pclath, cstack
  4104 ;; Tracked objects:
  4105 ;;		On entry : 0/0
  4106 ;;		On exit  : 0/0
  4107 ;;		Unchanged: 0/0
  4108 ;; Data sizes:     COMMON   BANK0   BANK1   BANK2   BANK3   BANK4   BANK5   BANK6
  4109 ;;      Params:         0       0       0       0       0       0       0       0
  4110 ;;      Locals:         0       9       0       0       0       0       0       0
  4111 ;;      Temps:          0       0       0       0       0       0       0       0
  4112 ;;      Totals:         0       9       0       0       0       0       0       0
  4113 ;;Total ram usage:        9 bytes
  4114 ;; Hardware stack levels used: 1
  4115 ;; Hardware stack levels required when called: 6
  4116 ;; This function calls:
  4117 ;;		_DRL_OFF
  4118 ;;		_DRL_ON
  4119 ;;		_HIBEAM_OFF
  4120 ;;		_HIBEAM_ON
  4121 ;;		_LEFT_OFF
  4122 ;;		_LEFT_ON
  4123 ;;		_LIN_getPacket
  4124 ;;		_LOBEAM_OFF
  4125 ;;		_LOBEAM_ON
  4126 ;;		_POS_OFF
  4127 ;;		_POS_ON
  4128 ;;		_RIGHT_OFF
  4129 ;;		_RIGHT_ON
  4130 ;; This function is called by:
  4131 ;;		_LIN_Slave_Initialize
  4132 ;;		_LIN_handler
  4133 ;; This function uses a non-reentrant model
  4134 ;;
  4135                           
  4136     016C                     _processLIN:	
  4137                           ;psect for function _processLIN
  4138                           
  4139     016C                     l2109:	
  4140                           ;incstack = 0
  4141                           ; Regs used in _processLIN: [wreg-fsr1h+status,2+status,0+pclath+cstack]
  4142                           
  4143                           
  4144                           ;mcc_generated_files/LINDrivers/lin_app.c: 155:   uint8_t tempRxData[8];;mcc_generated_f
      +                          iles/LINDrivers/lin_app.c: 156:   uint8_t cmd;;mcc_generated_files/LINDrivers/lin_app.c:
      +                           158:   lampState.Byte = 0;
  4145     016C  0020               	movlb	0	; select bank0
  4146     016D  01CE               	clrf	_lampState
  4147                           
  4148                           ;mcc_generated_files/LINDrivers/lin_app.c: 159:   lampFlags.Byte = 0;
  4149     016E  01CC               	clrf	_lampFlags
  4150     016F                     l2111:
  4151                           
  4152                           ;mcc_generated_files/LINDrivers/lin_app.c: 162:   cmd = LIN_getPacket(tempRxData);
  4153     016F  305D               	movlw	(low (processLIN@tempRxData| 0))& (0+255)
  4154     0170  3185  2500  3181   	fcall	_LIN_getPacket
  4155     0173  0020               	movlb	0	; select bank0
  4156     0174  00DC               	movwf	processLIN@cmd
  4157                           
  4158                           ;mcc_generated_files/LINDrivers/lin_app.c: 165:   switch (cmd) {
  4159     0175  29EE               	goto	l2173
  4160     0176                     l2113:
  4161                           
  4162                           ;mcc_generated_files/LINDrivers/lin_app.c: 170:     if ((tempRxData[2] == 0x49) || (temp
      +                          RxData[2] == 0x51)) {
  4163     0176  3049               	movlw	73
  4164     0177  065F               	xorwf	processLIN@tempRxData+2,w
  4165     0178  1903               	btfsc	3,2
  4166     0179  297B               	goto	u1431
  4167     017A  297C               	goto	u1430
  4168     017B                     u1431:
  4169     017B  2982               	goto	l2117
  4170     017C                     u1430:
  4171     017C                     l2115:
  4172     017C  3051               	movlw	81
  4173     017D  065F               	xorwf	processLIN@tempRxData+2,w
  4174     017E  1D03               	btfss	3,2
  4175     017F  2981               	goto	u1441
  4176     0180  2982               	goto	u1440
  4177     0181                     u1441:
  4178     0181  2986               	goto	l2121
  4179     0182                     u1440:
  4180     0182                     l2117:
  4181                           
  4182                           ;mcc_generated_files/LINDrivers/lin_app.c: 171:       lampState.mode = eOFF_DRL;
  4183     0182  30F8               	movlw	-8
  4184     0183  05CE               	andwf	_lampState,f
  4185     0184                     l2119:
  4186                           
  4187                           ;mcc_generated_files/LINDrivers/lin_app.c: 172:       lampFlags.fDRL = 1;
  4188     0184  144C               	bsf	_lampFlags,0
  4189                           
  4190                           ;mcc_generated_files/LINDrivers/lin_app.c: 173:     } else if ((tempRxData[2] == 0x0A) |
      +                          | (tempRxData[2] == 0x14) ||
  4191     0185  29D2               	goto	l2159
  4192     0186                     l2121:
  4193     0186  300A               	movlw	10
  4194     0187  065F               	xorwf	processLIN@tempRxData+2,w
  4195     0188  1903               	btfsc	3,2
  4196     0189  298B               	goto	u1451
  4197     018A  298C               	goto	u1450
  4198     018B                     u1451:
  4199     018B  2998               	goto	l2127
  4200     018C                     u1450:
  4201     018C                     l2123:
  4202     018C  3014               	movlw	20
  4203     018D  065F               	xorwf	processLIN@tempRxData+2,w
  4204     018E  1903               	btfsc	3,2
  4205     018F  2991               	goto	u1461
  4206     0190  2992               	goto	u1460
  4207     0191                     u1461:
  4208     0191  2998               	goto	l2127
  4209     0192                     u1460:
  4210     0192                     l2125:
  4211     0192  3012               	movlw	18
  4212     0193  065F               	xorwf	processLIN@tempRxData+2,w
  4213     0194  1D03               	btfss	3,2
  4214     0195  2997               	goto	u1471
  4215     0196  2998               	goto	u1470
  4216     0197                     u1471:
  4217     0197  299E               	goto	l2131
  4218     0198                     u1470:
  4219     0198                     l2127:
  4220                           
  4221                           ;mcc_generated_files/LINDrivers/lin_app.c: 174:                (tempRxData[2] == 0x12)) 
      +                          {;mcc_generated_files/LINDrivers/lin_app.c: 175:       lampState.mode = ePOS;
  4222     0198  084E               	movf	_lampState,w
  4223     0199  39F8               	andlw	-8
  4224     019A  3801               	iorlw	1
  4225     019B  00CE               	movwf	_lampState
  4226     019C                     l2129:
  4227                           
  4228                           ;mcc_generated_files/LINDrivers/lin_app.c: 176:       lampFlags.fPOS = 1;
  4229     019C  14CC               	bsf	_lampFlags,1
  4230                           
  4231                           ;mcc_generated_files/LINDrivers/lin_app.c: 177:     } else if ((tempRxData[2] == 0x8C) |
      +                          |
  4232     019D  29D2               	goto	l2159
  4233     019E                     l2131:
  4234     019E  308C               	movlw	140
  4235     019F  065F               	xorwf	processLIN@tempRxData+2,w
  4236     01A0  1903               	btfsc	3,2
  4237     01A1  29A3               	goto	u1481
  4238     01A2  29A4               	goto	u1480
  4239     01A3                     u1481:
  4240     01A3  29B0               	goto	l2137
  4241     01A4                     u1480:
  4242     01A4                     l2133:
  4243     01A4  3094               	movlw	148
  4244     01A5  065F               	xorwf	processLIN@tempRxData+2,w
  4245     01A6  1903               	btfsc	3,2
  4246     01A7  29A9               	goto	u1491
  4247     01A8  29AA               	goto	u1490
  4248     01A9                     u1491:
  4249     01A9  29B0               	goto	l2137
  4250     01AA                     u1490:
  4251     01AA                     l2135:
  4252     01AA  30AC               	movlw	172
  4253     01AB  065F               	xorwf	processLIN@tempRxData+2,w
  4254     01AC  1D03               	btfss	3,2
  4255     01AD  29AF               	goto	u1501
  4256     01AE  29B0               	goto	u1500
  4257     01AF                     u1501:
  4258     01AF  29B6               	goto	l2143
  4259     01B0                     u1500:
  4260     01B0                     l2137:
  4261                           
  4262                           ;mcc_generated_files/LINDrivers/lin_app.c: 179:                (tempRxData[2] == 0xAC)) 
      +                          {;mcc_generated_files/LINDrivers/lin_app.c: 180:       lampState.mode = eAUTO_LOBEAM_POS
      +                          ;
  4263     01B0  084E               	movf	_lampState,w
  4264     01B1  39F8               	andlw	-8
  4265     01B2  3803               	iorlw	3
  4266     01B3  00CE               	movwf	_lampState
  4267     01B4                     l2139:
  4268                           
  4269                           ;mcc_generated_files/LINDrivers/lin_app.c: 181:       lampFlags.fLOBEAM = 1;
  4270     01B4  154C               	bsf	_lampFlags,2
  4271     01B5  299C               	goto	l2129
  4272     01B6                     l2143:
  4273     01B6  304C               	movlw	76
  4274     01B7  065F               	xorwf	processLIN@tempRxData+2,w
  4275     01B8  1D03               	btfss	3,2
  4276     01B9  29BB               	goto	u1511
  4277     01BA  29BC               	goto	u1510
  4278     01BB                     u1511:
  4279     01BB  29C1               	goto	l2149
  4280     01BC                     u1510:
  4281     01BC                     l2145:
  4282                           
  4283                           ;mcc_generated_files/LINDrivers/lin_app.c: 184:       lampState.mode = eAUTO_DRL;
  4284     01BC  084E               	movf	_lampState,w
  4285     01BD  39F8               	andlw	-8
  4286     01BE  3802               	iorlw	2
  4287     01BF  00CE               	movwf	_lampState
  4288     01C0  2984               	goto	l2119
  4289     01C1                     l2149:
  4290     01C1  300B               	movlw	11
  4291     01C2  065F               	xorwf	processLIN@tempRxData+2,w
  4292     01C3  1903               	btfsc	3,2
  4293     01C4  29C6               	goto	u1521
  4294     01C5  29C7               	goto	u1520
  4295     01C6                     u1521:
  4296     01C6  29CD               	goto	l2153
  4297     01C7                     u1520:
  4298     01C7                     l2151:
  4299     01C7  3013               	movlw	19
  4300     01C8  065F               	xorwf	processLIN@tempRxData+2,w
  4301     01C9  1D03               	btfss	3,2
  4302     01CA  29CC               	goto	u1531
  4303     01CB  29CD               	goto	u1530
  4304     01CC                     u1531:
  4305     01CC  29D2               	goto	l93
  4306     01CD                     u1530:
  4307     01CD                     l2153:
  4308                           
  4309                           ;mcc_generated_files/LINDrivers/lin_app.c: 187:                (tempRxData[2] == 0x13)) 
      +                          {;mcc_generated_files/LINDrivers/lin_app.c: 188:       lampState.mode = eLOBEAM;
  4310     01CD  084E               	movf	_lampState,w
  4311     01CE  39F8               	andlw	-8
  4312     01CF  3804               	iorlw	4
  4313     01D0  00CE               	movwf	_lampState
  4314     01D1  29B4               	goto	l2139
  4315     01D2                     l93:
  4316     01D2                     l2159:
  4317                           
  4318                           ;mcc_generated_files/LINDrivers/lin_app.c: 194:     if ((tempRxData[1] & 0B10000000) == 
      +                          0B10000000) {
  4319     01D2  1FDE               	btfss	processLIN@tempRxData+1,7
  4320     01D3  29D5               	goto	u1541
  4321     01D4  29D6               	goto	u1540
  4322     01D5                     u1541:
  4323     01D5  29D8               	goto	l103
  4324     01D6                     u1540:
  4325     01D6                     l2161:
  4326                           
  4327                           ;mcc_generated_files/LINDrivers/lin_app.c: 195:       lampState.OverTaking = 1;
  4328     01D6  15CE               	bsf	_lampState,3
  4329                           
  4330                           ;mcc_generated_files/LINDrivers/lin_app.c: 196:       lampFlags.fHIBEAM = 1;
  4331     01D7  15CC               	bsf	_lampFlags,3
  4332     01D8                     l103:	
  4333                           ;mcc_generated_files/LINDrivers/lin_app.c: 197:     }
  4334                           
  4335                           
  4336                           ;mcc_generated_files/LINDrivers/lin_app.c: 200:     if ((tempRxData[1] & 0B01000000) == 
      +                          0B01000000) {
  4337     01D8  1F5E               	btfss	processLIN@tempRxData+1,6
  4338     01D9  29DB               	goto	u1551
  4339     01DA  29DC               	goto	u1550
  4340     01DB                     u1551:
  4341     01DB  29DE               	goto	l104
  4342     01DC                     u1550:
  4343     01DC                     l2163:
  4344                           
  4345                           ;mcc_generated_files/LINDrivers/lin_app.c: 201:       lampState.HighBeam = 1;
  4346     01DC  174E               	bsf	_lampState,6
  4347                           
  4348                           ;mcc_generated_files/LINDrivers/lin_app.c: 202:       lampFlags.fHIBEAM = 1;
  4349     01DD  15CC               	bsf	_lampFlags,3
  4350     01DE                     l104:	
  4351                           ;mcc_generated_files/LINDrivers/lin_app.c: 203:     }
  4352                           
  4353                           
  4354                           ;mcc_generated_files/LINDrivers/lin_app.c: 206:     if ((tempRxData[1] & 0B00010000) == 
      +                          0B00010000) {
  4355     01DE  1E5E               	btfss	processLIN@tempRxData+1,4
  4356     01DF  29E1               	goto	u1561
  4357     01E0  29E2               	goto	u1560
  4358     01E1                     u1561:
  4359     01E1  29E4               	goto	l105
  4360     01E2                     u1560:
  4361     01E2                     l2165:
  4362                           
  4363                           ;mcc_generated_files/LINDrivers/lin_app.c: 207:       lampState.TurnLeft = 1;
  4364     01E2  164E               	bsf	_lampState,4
  4365                           
  4366                           ;mcc_generated_files/LINDrivers/lin_app.c: 208:       lampFlags.fLEFT = 1;
  4367     01E3  16CC               	bsf	_lampFlags,5
  4368     01E4                     l105:	
  4369                           ;mcc_generated_files/LINDrivers/lin_app.c: 209:     }
  4370                           
  4371                           
  4372                           ;mcc_generated_files/LINDrivers/lin_app.c: 212:     if ((tempRxData[1] & 0B00100000) == 
      +                          0B00100000) {
  4373     01E4  1EDE               	btfss	processLIN@tempRxData+1,5
  4374     01E5  29E7               	goto	u1571
  4375     01E6  29E8               	goto	u1570
  4376     01E7                     u1571:
  4377     01E7  29F3               	goto	l107
  4378     01E8                     u1570:
  4379     01E8                     l2167:
  4380                           
  4381                           ;mcc_generated_files/LINDrivers/lin_app.c: 213:       lampState.TurnRight = 1;
  4382     01E8  16CE               	bsf	_lampState,5
  4383                           
  4384                           ;mcc_generated_files/LINDrivers/lin_app.c: 214:       lampFlags.fRIGHT = 1;
  4385     01E9  174C               	bsf	_lampFlags,6
  4386     01EA  29F3               	goto	l107
  4387     01EB                     l2169:
  4388                           
  4389                           ;mcc_generated_files/LINDrivers/lin_app.c: 235:     lampState.Byte = 0;
  4390     01EB  01CE               	clrf	_lampState
  4391                           
  4392                           ;mcc_generated_files/LINDrivers/lin_app.c: 236:     lampFlags.Byte = 0;
  4393     01EC  01CC               	clrf	_lampFlags
  4394                           
  4395                           ;mcc_generated_files/LINDrivers/lin_app.c: 237:     break;
  4396     01ED  29F3               	goto	l107
  4397     01EE                     l2173:
  4398     01EE  085C               	movf	processLIN@cmd,w
  4399                           
  4400                           ; Switch size 1, requested type "simple"
  4401                           ; Number of cases is 1, Range of values is 1 to 1
  4402                           ; switch strategies available:
  4403                           ; Name         Instructions Cycles
  4404                           ; simple_byte            4     3 (average)
  4405                           ; direct_byte           11     9 (fixed)
  4406                           ; jumptable            263     9 (fixed)
  4407                           ;	Chosen strategy is simple_byte
  4408     01EF  3A01               	xorlw	1	; case 1
  4409     01F0  1903               	skipnz
  4410     01F1  2976               	goto	l2113
  4411     01F2  29EB               	goto	l2169
  4412     01F3                     l107:
  4413                           
  4414                           ;mcc_generated_files/LINDrivers/lin_app.c: 242:   if (lampFlags.fDRL) {
  4415     01F3  1C4C               	btfss	_lampFlags,0
  4416     01F4  29F6               	goto	u1581
  4417     01F5  29F7               	goto	u1580
  4418     01F6                     u1581:
  4419     01F6  29FB               	goto	l2177
  4420     01F7                     u1580:
  4421     01F7                     l2175:
  4422                           
  4423                           ;mcc_generated_files/LINDrivers/lin_app.c: 243:     DRL_ON();
  4424     01F7  3186  26C7  3181   	fcall	_DRL_ON
  4425                           
  4426                           ;mcc_generated_files/LINDrivers/lin_app.c: 244:   } else {
  4427     01FA  29FE               	goto	l2179
  4428     01FB                     l2177:
  4429                           
  4430                           ;mcc_generated_files/LINDrivers/lin_app.c: 245:     DRL_OFF();
  4431     01FB  3186  26CA  3181   	fcall	_DRL_OFF
  4432     01FE                     l2179:
  4433                           
  4434                           ;mcc_generated_files/LINDrivers/lin_app.c: 248:   if (lampFlags.fPOS) {
  4435     01FE  0020               	movlb	0	; select bank0
  4436     01FF  1CCC               	btfss	_lampFlags,1
  4437     0200  2A02               	goto	u1591
  4438     0201  2A03               	goto	u1590
  4439     0202                     u1591:
  4440     0202  2A07               	goto	l2183
  4441     0203                     u1590:
  4442     0203                     l2181:
  4443                           
  4444                           ;mcc_generated_files/LINDrivers/lin_app.c: 249:     POS_ON();
  4445     0203  3186  26AF  3181   	fcall	_POS_ON
  4446                           
  4447                           ;mcc_generated_files/LINDrivers/lin_app.c: 250:   } else {
  4448     0206  2A0A               	goto	l2185
  4449     0207                     l2183:
  4450                           
  4451                           ;mcc_generated_files/LINDrivers/lin_app.c: 251:     POS_OFF();
  4452     0207  3186  26B2  3181   	fcall	_POS_OFF
  4453     020A                     l2185:
  4454                           
  4455                           ;mcc_generated_files/LINDrivers/lin_app.c: 254:   if (lampFlags.fLOBEAM) {
  4456     020A  0020               	movlb	0	; select bank0
  4457     020B  1D4C               	btfss	_lampFlags,2
  4458     020C  2A0E               	goto	u1601
  4459     020D  2A0F               	goto	u1600
  4460     020E                     u1601:
  4461     020E  2A13               	goto	l2189
  4462     020F                     u1600:
  4463     020F                     l2187:
  4464                           
  4465                           ;mcc_generated_files/LINDrivers/lin_app.c: 255:     LOBEAM_ON();
  4466     020F  3186  26B5  3181   	fcall	_LOBEAM_ON
  4467                           
  4468                           ;mcc_generated_files/LINDrivers/lin_app.c: 256:   } else {
  4469     0212  2A16               	goto	l2191
  4470     0213                     l2189:
  4471                           
  4472                           ;mcc_generated_files/LINDrivers/lin_app.c: 257:     LOBEAM_OFF();
  4473     0213  3186  26B8  3181   	fcall	_LOBEAM_OFF
  4474     0216                     l2191:
  4475                           
  4476                           ;mcc_generated_files/LINDrivers/lin_app.c: 260:   if (lampFlags.fHIBEAM) {
  4477     0216  0020               	movlb	0	; select bank0
  4478     0217  1DCC               	btfss	_lampFlags,3
  4479     0218  2A1A               	goto	u1611
  4480     0219  2A1B               	goto	u1610
  4481     021A                     u1611:
  4482     021A  2A1F               	goto	l2195
  4483     021B                     u1610:
  4484     021B                     l2193:
  4485                           
  4486                           ;mcc_generated_files/LINDrivers/lin_app.c: 261:     HIBEAM_ON();
  4487     021B  3186  26C1  3181   	fcall	_HIBEAM_ON
  4488                           
  4489                           ;mcc_generated_files/LINDrivers/lin_app.c: 262:   } else {
  4490     021E  2A22               	goto	l2197
  4491     021F                     l2195:
  4492                           
  4493                           ;mcc_generated_files/LINDrivers/lin_app.c: 263:     HIBEAM_OFF();
  4494     021F  3186  26C4  3181   	fcall	_HIBEAM_OFF
  4495     0222                     l2197:
  4496                           
  4497                           ;mcc_generated_files/LINDrivers/lin_app.c: 266:   if (lampFlags.fLEFT) {
  4498     0222  0020               	movlb	0	; select bank0
  4499     0223  1ECC               	btfss	_lampFlags,5
  4500     0224  2A26               	goto	u1621
  4501     0225  2A27               	goto	u1620
  4502     0226                     u1621:
  4503     0226  2A2B               	goto	l2201
  4504     0227                     u1620:
  4505     0227                     l2199:
  4506                           
  4507                           ;mcc_generated_files/LINDrivers/lin_app.c: 267:     LEFT_ON();
  4508     0227  3186  26BB  3181   	fcall	_LEFT_ON
  4509                           
  4510                           ;mcc_generated_files/LINDrivers/lin_app.c: 268:   } else {
  4511     022A  2A2E               	goto	l2203
  4512     022B                     l2201:
  4513                           
  4514                           ;mcc_generated_files/LINDrivers/lin_app.c: 269:     LEFT_OFF();
  4515     022B  3186  26BE  3181   	fcall	_LEFT_OFF
  4516     022E                     l2203:
  4517                           
  4518                           ;mcc_generated_files/LINDrivers/lin_app.c: 272:   if (lampFlags.fRIGHT) {
  4519     022E  0020               	movlb	0	; select bank0
  4520     022F  1F4C               	btfss	_lampFlags,6
  4521     0230  2A32               	goto	u1631
  4522     0231  2A33               	goto	u1630
  4523     0232                     u1631:
  4524     0232  2A37               	goto	l2207
  4525     0233                     u1630:
  4526     0233                     l2205:
  4527                           
  4528                           ;mcc_generated_files/LINDrivers/lin_app.c: 273:     RIGHT_ON();
  4529     0233  3186  26A9  3181   	fcall	_RIGHT_ON
  4530                           
  4531                           ;mcc_generated_files/LINDrivers/lin_app.c: 274:   } else {
  4532     0236  2A3A               	goto	l121
  4533     0237                     l2207:
  4534                           
  4535                           ;mcc_generated_files/LINDrivers/lin_app.c: 275:     RIGHT_OFF();
  4536     0237  3186  26AC  3181   	fcall	_RIGHT_OFF
  4537     023A                     l121:
  4538     023A  0008               	return
  4539     023B                     __end_of_processLIN:
  4540                           
  4541                           	psect	text22
  4542     06A9                     __ptext22:	
  4543 ;; *************** function _RIGHT_ON *****************
  4544 ;; Defined at:
  4545 ;;		line 140 in file "mcc_generated_files/LINDrivers/lin_app.c"
  4546 ;; Parameters:    Size  Location     Type
  4547 ;;		None
  4548 ;; Auto vars:     Size  Location     Type
  4549 ;;		None
  4550 ;; Return value:  Size  Location     Type
  4551 ;;                  1    wreg      void 
  4552 ;; Registers used:
  4553 ;;		None
  4554 ;; Tracked objects:
  4555 ;;		On entry : 0/0
  4556 ;;		On exit  : 0/0
  4557 ;;		Unchanged: 0/0
  4558 ;; Data sizes:     COMMON   BANK0   BANK1   BANK2   BANK3   BANK4   BANK5   BANK6
  4559 ;;      Params:         0       0       0       0       0       0       0       0
  4560 ;;      Locals:         0       0       0       0       0       0       0       0
  4561 ;;      Temps:          0       0       0       0       0       0       0       0
  4562 ;;      Totals:         0       0       0       0       0       0       0       0
  4563 ;;Total ram usage:        0 bytes
  4564 ;; Hardware stack levels used: 1
  4565 ;; Hardware stack levels required when called: 4
  4566 ;; This function calls:
  4567 ;;		Nothing
  4568 ;; This function is called by:
  4569 ;;		_processLIN
  4570 ;; This function uses a non-reentrant model
  4571 ;;
  4572                           
  4573     06A9                     _RIGHT_ON:	
  4574                           ;psect for function _RIGHT_ON
  4575                           
  4576     06A9                     l65:	
  4577                           ;incstack = 0
  4578                           ; Regs used in _RIGHT_ON: []
  4579                           
  4580     06A9  0022               	movlb	2	; select bank2
  4581     06AA  140D               	bsf	13,0	;volatile
  4582     06AB                     l67:
  4583     06AB  0008               	return
  4584     06AC                     __end_of_RIGHT_ON:
  4585                           
  4586                           	psect	text23
  4587     06AC                     __ptext23:	
  4588 ;; *************** function _RIGHT_OFF *****************
  4589 ;; Defined at:
  4590 ;;		line 141 in file "mcc_generated_files/LINDrivers/lin_app.c"
  4591 ;; Parameters:    Size  Location     Type
  4592 ;;		None
  4593 ;; Auto vars:     Size  Location     Type
  4594 ;;		None
  4595 ;; Return value:  Size  Location     Type
  4596 ;;                  1    wreg      void 
  4597 ;; Registers used:
  4598 ;;		None
  4599 ;; Tracked objects:
  4600 ;;		On entry : 0/0
  4601 ;;		On exit  : 0/0
  4602 ;;		Unchanged: 0/0
  4603 ;; Data sizes:     COMMON   BANK0   BANK1   BANK2   BANK3   BANK4   BANK5   BANK6
  4604 ;;      Params:         0       0       0       0       0       0       0       0
  4605 ;;      Locals:         0       0       0       0       0       0       0       0
  4606 ;;      Temps:          0       0       0       0       0       0       0       0
  4607 ;;      Totals:         0       0       0       0       0       0       0       0
  4608 ;;Total ram usage:        0 bytes
  4609 ;; Hardware stack levels used: 1
  4610 ;; Hardware stack levels required when called: 4
  4611 ;; This function calls:
  4612 ;;		Nothing
  4613 ;; This function is called by:
  4614 ;;		_processLIN
  4615 ;; This function uses a non-reentrant model
  4616 ;;
  4617                           
  4618     06AC                     _RIGHT_OFF:	
  4619                           ;psect for function _RIGHT_OFF
  4620                           
  4621     06AC                     l70:	
  4622                           ;incstack = 0
  4623                           ; Regs used in _RIGHT_OFF: []
  4624                           
  4625     06AC  0022               	movlb	2	; select bank2
  4626     06AD  100D               	bcf	13,0	;volatile
  4627     06AE                     l72:
  4628     06AE  0008               	return
  4629     06AF                     __end_of_RIGHT_OFF:
  4630                           
  4631                           	psect	text24
  4632     06AF                     __ptext24:	
  4633 ;; *************** function _POS_ON *****************
  4634 ;; Defined at:
  4635 ;;		line 130 in file "mcc_generated_files/LINDrivers/lin_app.c"
  4636 ;; Parameters:    Size  Location     Type
  4637 ;;		None
  4638 ;; Auto vars:     Size  Location     Type
  4639 ;;		None
  4640 ;; Return value:  Size  Location     Type
  4641 ;;                  1    wreg      void 
  4642 ;; Registers used:
  4643 ;;		None
  4644 ;; Tracked objects:
  4645 ;;		On entry : 0/0
  4646 ;;		On exit  : 0/0
  4647 ;;		Unchanged: 0/0
  4648 ;; Data sizes:     COMMON   BANK0   BANK1   BANK2   BANK3   BANK4   BANK5   BANK6
  4649 ;;      Params:         0       0       0       0       0       0       0       0
  4650 ;;      Locals:         0       0       0       0       0       0       0       0
  4651 ;;      Temps:          0       0       0       0       0       0       0       0
  4652 ;;      Totals:         0       0       0       0       0       0       0       0
  4653 ;;Total ram usage:        0 bytes
  4654 ;; Hardware stack levels used: 1
  4655 ;; Hardware stack levels required when called: 4
  4656 ;; This function calls:
  4657 ;;		Nothing
  4658 ;; This function is called by:
  4659 ;;		_processLIN
  4660 ;; This function uses a non-reentrant model
  4661 ;;
  4662                           
  4663     06AF                     _POS_ON:	
  4664                           ;psect for function _POS_ON
  4665                           
  4666     06AF                     l15:	
  4667                           ;incstack = 0
  4668                           ; Regs used in _POS_ON: []
  4669                           
  4670     06AF  0022               	movlb	2	; select bank2
  4671     06B0  168D               	bsf	13,5	;volatile
  4672     06B1                     l17:
  4673     06B1  0008               	return
  4674     06B2                     __end_of_POS_ON:
  4675                           
  4676                           	psect	text25
  4677     06B2                     __ptext25:	
  4678 ;; *************** function _POS_OFF *****************
  4679 ;; Defined at:
  4680 ;;		line 131 in file "mcc_generated_files/LINDrivers/lin_app.c"
  4681 ;; Parameters:    Size  Location     Type
  4682 ;;		None
  4683 ;; Auto vars:     Size  Location     Type
  4684 ;;		None
  4685 ;; Return value:  Size  Location     Type
  4686 ;;                  1    wreg      void 
  4687 ;; Registers used:
  4688 ;;		None
  4689 ;; Tracked objects:
  4690 ;;		On entry : 0/0
  4691 ;;		On exit  : 0/0
  4692 ;;		Unchanged: 0/0
  4693 ;; Data sizes:     COMMON   BANK0   BANK1   BANK2   BANK3   BANK4   BANK5   BANK6
  4694 ;;      Params:         0       0       0       0       0       0       0       0
  4695 ;;      Locals:         0       0       0       0       0       0       0       0
  4696 ;;      Temps:          0       0       0       0       0       0       0       0
  4697 ;;      Totals:         0       0       0       0       0       0       0       0
  4698 ;;Total ram usage:        0 bytes
  4699 ;; Hardware stack levels used: 1
  4700 ;; Hardware stack levels required when called: 4
  4701 ;; This function calls:
  4702 ;;		Nothing
  4703 ;; This function is called by:
  4704 ;;		_processLIN
  4705 ;; This function uses a non-reentrant model
  4706 ;;
  4707                           
  4708     06B2                     _POS_OFF:	
  4709                           ;psect for function _POS_OFF
  4710                           
  4711     06B2                     l20:	
  4712                           ;incstack = 0
  4713                           ; Regs used in _POS_OFF: []
  4714                           
  4715     06B2  0022               	movlb	2	; select bank2
  4716     06B3  128D               	bcf	13,5	;volatile
  4717     06B4                     l22:
  4718     06B4  0008               	return
  4719     06B5                     __end_of_POS_OFF:
  4720                           
  4721                           	psect	text26
  4722     06B5                     __ptext26:	
  4723 ;; *************** function _LOBEAM_ON *****************
  4724 ;; Defined at:
  4725 ;;		line 134 in file "mcc_generated_files/LINDrivers/lin_app.c"
  4726 ;; Parameters:    Size  Location     Type
  4727 ;;		None
  4728 ;; Auto vars:     Size  Location     Type
  4729 ;;		None
  4730 ;; Return value:  Size  Location     Type
  4731 ;;                  1    wreg      void 
  4732 ;; Registers used:
  4733 ;;		None
  4734 ;; Tracked objects:
  4735 ;;		On entry : 0/0
  4736 ;;		On exit  : 0/0
  4737 ;;		Unchanged: 0/0
  4738 ;; Data sizes:     COMMON   BANK0   BANK1   BANK2   BANK3   BANK4   BANK5   BANK6
  4739 ;;      Params:         0       0       0       0       0       0       0       0
  4740 ;;      Locals:         0       0       0       0       0       0       0       0
  4741 ;;      Temps:          0       0       0       0       0       0       0       0
  4742 ;;      Totals:         0       0       0       0       0       0       0       0
  4743 ;;Total ram usage:        0 bytes
  4744 ;; Hardware stack levels used: 1
  4745 ;; Hardware stack levels required when called: 4
  4746 ;; This function calls:
  4747 ;;		Nothing
  4748 ;; This function is called by:
  4749 ;;		_processLIN
  4750 ;; This function uses a non-reentrant model
  4751 ;;
  4752                           
  4753     06B5                     _LOBEAM_ON:	
  4754                           ;psect for function _LOBEAM_ON
  4755                           
  4756     06B5                     l35:	
  4757                           ;incstack = 0
  4758                           ; Regs used in _LOBEAM_ON: []
  4759                           
  4760     06B5  0022               	movlb	2	; select bank2
  4761     06B6  158D               	bsf	13,3	;volatile
  4762     06B7                     l37:
  4763     06B7  0008               	return
  4764     06B8                     __end_of_LOBEAM_ON:
  4765                           
  4766                           	psect	text27
  4767     06B8                     __ptext27:	
  4768 ;; *************** function _LOBEAM_OFF *****************
  4769 ;; Defined at:
  4770 ;;		line 135 in file "mcc_generated_files/LINDrivers/lin_app.c"
  4771 ;; Parameters:    Size  Location     Type
  4772 ;;		None
  4773 ;; Auto vars:     Size  Location     Type
  4774 ;;		None
  4775 ;; Return value:  Size  Location     Type
  4776 ;;                  1    wreg      void 
  4777 ;; Registers used:
  4778 ;;		None
  4779 ;; Tracked objects:
  4780 ;;		On entry : 0/0
  4781 ;;		On exit  : 0/0
  4782 ;;		Unchanged: 0/0
  4783 ;; Data sizes:     COMMON   BANK0   BANK1   BANK2   BANK3   BANK4   BANK5   BANK6
  4784 ;;      Params:         0       0       0       0       0       0       0       0
  4785 ;;      Locals:         0       0       0       0       0       0       0       0
  4786 ;;      Temps:          0       0       0       0       0       0       0       0
  4787 ;;      Totals:         0       0       0       0       0       0       0       0
  4788 ;;Total ram usage:        0 bytes
  4789 ;; Hardware stack levels used: 1
  4790 ;; Hardware stack levels required when called: 4
  4791 ;; This function calls:
  4792 ;;		Nothing
  4793 ;; This function is called by:
  4794 ;;		_processLIN
  4795 ;; This function uses a non-reentrant model
  4796 ;;
  4797                           
  4798     06B8                     _LOBEAM_OFF:	
  4799                           ;psect for function _LOBEAM_OFF
  4800                           
  4801     06B8                     l40:	
  4802                           ;incstack = 0
  4803                           ; Regs used in _LOBEAM_OFF: []
  4804                           
  4805     06B8  0022               	movlb	2	; select bank2
  4806     06B9  118D               	bcf	13,3	;volatile
  4807     06BA                     l42:
  4808     06BA  0008               	return
  4809     06BB                     __end_of_LOBEAM_OFF:
  4810                           
  4811                           	psect	text28
  4812     0500                     __ptext28:	
  4813 ;; *************** function _LIN_getPacket *****************
  4814 ;; Defined at:
  4815 ;;		line 223 in file "mcc_generated_files/LINDrivers/lin_slave.c"
  4816 ;; Parameters:    Size  Location     Type
  4817 ;;  data            1    wreg     PTR unsigned char 
  4818 ;;		 -> processLIN@tempRxData(8), 
  4819 ;; Auto vars:     Size  Location     Type
  4820 ;;  data            1   10[COMMON] PTR unsigned char 
  4821 ;;		 -> processLIN@tempRxData(8), 
  4822 ;;  cmd             1    9[COMMON] unsigned char 
  4823 ;; Return value:  Size  Location     Type
  4824 ;;                  1    wreg      unsigned char 
  4825 ;; Registers used:
  4826 ;;		wreg, fsr1l, fsr1h, status,2, status,0, pclath, cstack
  4827 ;; Tracked objects:
  4828 ;;		On entry : 0/0
  4829 ;;		On exit  : 0/0
  4830 ;;		Unchanged: 0/0
  4831 ;; Data sizes:     COMMON   BANK0   BANK1   BANK2   BANK3   BANK4   BANK5   BANK6
  4832 ;;      Params:         0       0       0       0       0       0       0       0
  4833 ;;      Locals:         2       0       0       0       0       0       0       0
  4834 ;;      Temps:          0       0       0       0       0       0       0       0
  4835 ;;      Totals:         2       0       0       0       0       0       0       0
  4836 ;;Total ram usage:        2 bytes
  4837 ;; Hardware stack levels used: 1
  4838 ;; Hardware stack levels required when called: 5
  4839 ;; This function calls:
  4840 ;;		_memcpy
  4841 ;;		_memset
  4842 ;; This function is called by:
  4843 ;;		_processLIN
  4844 ;; This function uses a non-reentrant model
  4845 ;;
  4846                           
  4847     0500                     _LIN_getPacket:	
  4848                           ;psect for function _LIN_getPacket
  4849                           
  4850                           
  4851                           ;incstack = 0
  4852                           ; Regs used in _LIN_getPacket: [wreg+fsr1l+fsr1h+status,2+status,0+pclath+cstack]
  4853                           ;LIN_getPacket@data stored from wreg
  4854     0500  00FA               	movwf	LIN_getPacket@data
  4855     0501                     l1971:
  4856                           
  4857                           ;mcc_generated_files/LINDrivers/lin_slave.c: 224:   uint8_t cmd = LIN_packet.PID & 0x3F;
  4858     0501  0020               	movlb	0	; select bank0
  4859     0502  084F               	movf	_LIN_packet,w
  4860     0503  393F               	andlw	63
  4861     0504  00F9               	movwf	LIN_getPacket@cmd
  4862     0505                     l1973:
  4863                           
  4864                           ;mcc_generated_files/LINDrivers/lin_slave.c: 226:   memcpy(data, LIN_packet.data, sizeof
      +                          (LIN_packet.data));
  4865     0505  3050               	movlw	(low ((_LIN_packet| 0+1)))& (0+255)
  4866     0506  00F1               	movwf	memcpy@s1
  4867     0507  3008               	movlw	8
  4868     0508  00F2               	movwf	memcpy@n
  4869     0509  3000               	movlw	0
  4870     050A  00F3               	movwf	memcpy@n+1
  4871     050B  087A               	movf	LIN_getPacket@data,w
  4872     050C  3184  2494  3185   	fcall	_memcpy
  4873     050F                     l1975:
  4874                           
  4875                           ;mcc_generated_files/LINDrivers/lin_slave.c: 227:   memset(LIN_packet.rawPacket, 0, size
      +                          of(LIN_packet.rawPacket));
  4876     050F  3000               	movlw	0
  4877     0510  00F1               	movwf	memset@c
  4878     0511  00F2               	movwf	memset@c+1
  4879     0512  300D               	movlw	13
  4880     0513  00F3               	movwf	memset@n
  4881     0514  3000               	movlw	0
  4882     0515  00F4               	movwf	memset@n+1
  4883     0516  304F               	movlw	(low (_LIN_packet| 0))& (0+255)
  4884     0517  3185  2551  3185   	fcall	_memset
  4885     051A                     l1977:
  4886                           
  4887                           ;mcc_generated_files/LINDrivers/lin_slave.c: 229:   return cmd;
  4888     051A  0879               	movf	LIN_getPacket@cmd,w
  4889     051B                     l239:
  4890     051B  0008               	return
  4891     051C                     __end_of_LIN_getPacket:
  4892                           
  4893                           	psect	text29
  4894     0551                     __ptext29:	
  4895 ;; *************** function _memset *****************
  4896 ;; Defined at:
  4897 ;;		line 3 in file "C:\Program Files\Microchip\xc8\v2.46\pic\sources\c99\common\memset.c"
  4898 ;; Parameters:    Size  Location     Type
  4899 ;;  dest            1    wreg     PTR void 
  4900 ;;		 -> LIN_packet(13), 
  4901 ;;  c               2    1[COMMON] int 
  4902 ;;  n               2    3[COMMON] unsigned int 
  4903 ;; Auto vars:     Size  Location     Type
  4904 ;;  dest            1    7[COMMON] PTR void 
  4905 ;;		 -> LIN_packet(13), 
  4906 ;;  p               1    6[COMMON] PTR unsigned char 
  4907 ;;		 -> LIN_packet(13), 
  4908 ;; Return value:  Size  Location     Type
  4909 ;;                  1    wreg      PTR void 
  4910 ;; Registers used:
  4911 ;;		wreg, fsr1l, fsr1h, status,2, status,0
  4912 ;; Tracked objects:
  4913 ;;		On entry : 0/0
  4914 ;;		On exit  : 0/0
  4915 ;;		Unchanged: 0/0
  4916 ;; Data sizes:     COMMON   BANK0   BANK1   BANK2   BANK3   BANK4   BANK5   BANK6
  4917 ;;      Params:         4       0       0       0       0       0       0       0
  4918 ;;      Locals:         2       0       0       0       0       0       0       0
  4919 ;;      Temps:          1       0       0       0       0       0       0       0
  4920 ;;      Totals:         7       0       0       0       0       0       0       0
  4921 ;;Total ram usage:        7 bytes
  4922 ;; Hardware stack levels used: 1
  4923 ;; Hardware stack levels required when called: 4
  4924 ;; This function calls:
  4925 ;;		Nothing
  4926 ;; This function is called by:
  4927 ;;		_LIN_handler
  4928 ;;		_LIN_getPacket
  4929 ;; This function uses a non-reentrant model
  4930 ;;
  4931                           
  4932     0551                     _memset:	
  4933                           ;psect for function _memset
  4934                           
  4935                           
  4936                           ;incstack = 0
  4937                           ; Regs used in _memset: [wreg+fsr1l+fsr1h+status,2+status,0]
  4938                           ;memset@dest stored from wreg
  4939     0551  00F7               	movwf	memset@dest
  4940     0552                     l1937:
  4941     0552  0877               	movf	memset@dest,w
  4942     0553  00F6               	movwf	memset@p
  4943     0554  2D5E               	goto	l1943
  4944     0555                     l1939:
  4945     0555  0876               	movf	memset@p,w
  4946     0556  0086               	movwf	6
  4947     0557  0187               	clrf	7
  4948     0558  0871               	movf	memset@c,w
  4949     0559  0081               	movwf	1
  4950     055A                     l1941:
  4951     055A  3001               	movlw	1
  4952     055B  00F5               	movwf	??_memset
  4953     055C  0875               	movf	??_memset,w
  4954     055D  07F6               	addwf	memset@p,f
  4955     055E                     l1943:
  4956     055E  3001               	movlw	1
  4957     055F  02F3               	subwf	memset@n,f
  4958     0560  3000               	movlw	0
  4959     0561  3BF4               	subwfb	memset@n+1,f
  4960     0562  0A73               	incf	memset@n,w
  4961     0563  1D03               	skipz
  4962     0564  2D69               	goto	u1061
  4963     0565  0A74               	incf	memset@n+1,w
  4964     0566  1D03               	btfss	3,2
  4965     0567  2D69               	goto	u1061
  4966     0568  2D6A               	goto	u1060
  4967     0569                     u1061:
  4968     0569  2D55               	goto	l1939
  4969     056A                     u1060:
  4970     056A                     l1229:
  4971     056A  0008               	return
  4972     056B                     __end_of_memset:
  4973                           
  4974                           	psect	text30
  4975     06BB                     __ptext30:	
  4976 ;; *************** function _LEFT_ON *****************
  4977 ;; Defined at:
  4978 ;;		line 138 in file "mcc_generated_files/LINDrivers/lin_app.c"
  4979 ;; Parameters:    Size  Location     Type
  4980 ;;		None
  4981 ;; Auto vars:     Size  Location     Type
  4982 ;;		None
  4983 ;; Return value:  Size  Location     Type
  4984 ;;                  1    wreg      void 
  4985 ;; Registers used:
  4986 ;;		None
  4987 ;; Tracked objects:
  4988 ;;		On entry : 0/0
  4989 ;;		On exit  : 0/0
  4990 ;;		Unchanged: 0/0
  4991 ;; Data sizes:     COMMON   BANK0   BANK1   BANK2   BANK3   BANK4   BANK5   BANK6
  4992 ;;      Params:         0       0       0       0       0       0       0       0
  4993 ;;      Locals:         0       0       0       0       0       0       0       0
  4994 ;;      Temps:          0       0       0       0       0       0       0       0
  4995 ;;      Totals:         0       0       0       0       0       0       0       0
  4996 ;;Total ram usage:        0 bytes
  4997 ;; Hardware stack levels used: 1
  4998 ;; Hardware stack levels required when called: 4
  4999 ;; This function calls:
  5000 ;;		Nothing
  5001 ;; This function is called by:
  5002 ;;		_processLIN
  5003 ;; This function uses a non-reentrant model
  5004 ;;
  5005                           
  5006     06BB                     _LEFT_ON:	
  5007                           ;psect for function _LEFT_ON
  5008                           
  5009     06BB                     l55:	
  5010                           ;incstack = 0
  5011                           ; Regs used in _LEFT_ON: []
  5012                           
  5013     06BB  0022               	movlb	2	; select bank2
  5014     06BC  148D               	bsf	13,1	;volatile
  5015     06BD                     l57:
  5016     06BD  0008               	return
  5017     06BE                     __end_of_LEFT_ON:
  5018                           
  5019                           	psect	text31
  5020     06BE                     __ptext31:	
  5021 ;; *************** function _LEFT_OFF *****************
  5022 ;; Defined at:
  5023 ;;		line 139 in file "mcc_generated_files/LINDrivers/lin_app.c"
  5024 ;; Parameters:    Size  Location     Type
  5025 ;;		None
  5026 ;; Auto vars:     Size  Location     Type
  5027 ;;		None
  5028 ;; Return value:  Size  Location     Type
  5029 ;;                  1    wreg      void 
  5030 ;; Registers used:
  5031 ;;		None
  5032 ;; Tracked objects:
  5033 ;;		On entry : 0/0
  5034 ;;		On exit  : 0/0
  5035 ;;		Unchanged: 0/0
  5036 ;; Data sizes:     COMMON   BANK0   BANK1   BANK2   BANK3   BANK4   BANK5   BANK6
  5037 ;;      Params:         0       0       0       0       0       0       0       0
  5038 ;;      Locals:         0       0       0       0       0       0       0       0
  5039 ;;      Temps:          0       0       0       0       0       0       0       0
  5040 ;;      Totals:         0       0       0       0       0       0       0       0
  5041 ;;Total ram usage:        0 bytes
  5042 ;; Hardware stack levels used: 1
  5043 ;; Hardware stack levels required when called: 4
  5044 ;; This function calls:
  5045 ;;		Nothing
  5046 ;; This function is called by:
  5047 ;;		_processLIN
  5048 ;; This function uses a non-reentrant model
  5049 ;;
  5050                           
  5051     06BE                     _LEFT_OFF:	
  5052                           ;psect for function _LEFT_OFF
  5053                           
  5054     06BE                     l60:	
  5055                           ;incstack = 0
  5056                           ; Regs used in _LEFT_OFF: []
  5057                           
  5058     06BE  0022               	movlb	2	; select bank2
  5059     06BF  108D               	bcf	13,1	;volatile
  5060     06C0                     l62:
  5061     06C0  0008               	return
  5062     06C1                     __end_of_LEFT_OFF:
  5063                           
  5064                           	psect	text32
  5065     06C1                     __ptext32:	
  5066 ;; *************** function _HIBEAM_ON *****************
  5067 ;; Defined at:
  5068 ;;		line 136 in file "mcc_generated_files/LINDrivers/lin_app.c"
  5069 ;; Parameters:    Size  Location     Type
  5070 ;;		None
  5071 ;; Auto vars:     Size  Location     Type
  5072 ;;		None
  5073 ;; Return value:  Size  Location     Type
  5074 ;;                  1    wreg      void 
  5075 ;; Registers used:
  5076 ;;		None
  5077 ;; Tracked objects:
  5078 ;;		On entry : 0/0
  5079 ;;		On exit  : 0/0
  5080 ;;		Unchanged: 0/0
  5081 ;; Data sizes:     COMMON   BANK0   BANK1   BANK2   BANK3   BANK4   BANK5   BANK6
  5082 ;;      Params:         0       0       0       0       0       0       0       0
  5083 ;;      Locals:         0       0       0       0       0       0       0       0
  5084 ;;      Temps:          0       0       0       0       0       0       0       0
  5085 ;;      Totals:         0       0       0       0       0       0       0       0
  5086 ;;Total ram usage:        0 bytes
  5087 ;; Hardware stack levels used: 1
  5088 ;; Hardware stack levels required when called: 4
  5089 ;; This function calls:
  5090 ;;		Nothing
  5091 ;; This function is called by:
  5092 ;;		_processLIN
  5093 ;; This function uses a non-reentrant model
  5094 ;;
  5095                           
  5096     06C1                     _HIBEAM_ON:	
  5097                           ;psect for function _HIBEAM_ON
  5098                           
  5099     06C1                     l45:	
  5100                           ;incstack = 0
  5101                           ; Regs used in _HIBEAM_ON: []
  5102                           
  5103     06C1  0022               	movlb	2	; select bank2
  5104     06C2  150D               	bsf	13,2	;volatile
  5105     06C3                     l47:
  5106     06C3  0008               	return
  5107     06C4                     __end_of_HIBEAM_ON:
  5108                           
  5109                           	psect	text33
  5110     06C4                     __ptext33:	
  5111 ;; *************** function _HIBEAM_OFF *****************
  5112 ;; Defined at:
  5113 ;;		line 137 in file "mcc_generated_files/LINDrivers/lin_app.c"
  5114 ;; Parameters:    Size  Location     Type
  5115 ;;		None
  5116 ;; Auto vars:     Size  Location     Type
  5117 ;;		None
  5118 ;; Return value:  Size  Location     Type
  5119 ;;                  1    wreg      void 
  5120 ;; Registers used:
  5121 ;;		None
  5122 ;; Tracked objects:
  5123 ;;		On entry : 0/0
  5124 ;;		On exit  : 0/0
  5125 ;;		Unchanged: 0/0
  5126 ;; Data sizes:     COMMON   BANK0   BANK1   BANK2   BANK3   BANK4   BANK5   BANK6
  5127 ;;      Params:         0       0       0       0       0       0       0       0
  5128 ;;      Locals:         0       0       0       0       0       0       0       0
  5129 ;;      Temps:          0       0       0       0       0       0       0       0
  5130 ;;      Totals:         0       0       0       0       0       0       0       0
  5131 ;;Total ram usage:        0 bytes
  5132 ;; Hardware stack levels used: 1
  5133 ;; Hardware stack levels required when called: 4
  5134 ;; This function calls:
  5135 ;;		Nothing
  5136 ;; This function is called by:
  5137 ;;		_processLIN
  5138 ;; This function uses a non-reentrant model
  5139 ;;
  5140                           
  5141     06C4                     _HIBEAM_OFF:	
  5142                           ;psect for function _HIBEAM_OFF
  5143                           
  5144     06C4                     l50:	
  5145                           ;incstack = 0
  5146                           ; Regs used in _HIBEAM_OFF: []
  5147                           
  5148     06C4  0022               	movlb	2	; select bank2
  5149     06C5  110D               	bcf	13,2	;volatile
  5150     06C6                     l52:
  5151     06C6  0008               	return
  5152     06C7                     __end_of_HIBEAM_OFF:
  5153                           
  5154                           	psect	text34
  5155     06C7                     __ptext34:	
  5156 ;; *************** function _DRL_ON *****************
  5157 ;; Defined at:
  5158 ;;		line 132 in file "mcc_generated_files/LINDrivers/lin_app.c"
  5159 ;; Parameters:    Size  Location     Type
  5160 ;;		None
  5161 ;; Auto vars:     Size  Location     Type
  5162 ;;		None
  5163 ;; Return value:  Size  Location     Type
  5164 ;;                  1    wreg      void 
  5165 ;; Registers used:
  5166 ;;		None
  5167 ;; Tracked objects:
  5168 ;;		On entry : 0/0
  5169 ;;		On exit  : 0/0
  5170 ;;		Unchanged: 0/0
  5171 ;; Data sizes:     COMMON   BANK0   BANK1   BANK2   BANK3   BANK4   BANK5   BANK6
  5172 ;;      Params:         0       0       0       0       0       0       0       0
  5173 ;;      Locals:         0       0       0       0       0       0       0       0
  5174 ;;      Temps:          0       0       0       0       0       0       0       0
  5175 ;;      Totals:         0       0       0       0       0       0       0       0
  5176 ;;Total ram usage:        0 bytes
  5177 ;; Hardware stack levels used: 1
  5178 ;; Hardware stack levels required when called: 4
  5179 ;; This function calls:
  5180 ;;		Nothing
  5181 ;; This function is called by:
  5182 ;;		_processLIN
  5183 ;; This function uses a non-reentrant model
  5184 ;;
  5185                           
  5186     06C7                     _DRL_ON:	
  5187                           ;psect for function _DRL_ON
  5188                           
  5189     06C7                     l25:	
  5190                           ;incstack = 0
  5191                           ; Regs used in _DRL_ON: []
  5192                           
  5193     06C7  0022               	movlb	2	; select bank2
  5194     06C8  160D               	bsf	13,4	;volatile
  5195     06C9                     l27:
  5196     06C9  0008               	return
  5197     06CA                     __end_of_DRL_ON:
  5198                           
  5199                           	psect	text35
  5200     06CA                     __ptext35:	
  5201 ;; *************** function _DRL_OFF *****************
  5202 ;; Defined at:
  5203 ;;		line 133 in file "mcc_generated_files/LINDrivers/lin_app.c"
  5204 ;; Parameters:    Size  Location     Type
  5205 ;;		None
  5206 ;; Auto vars:     Size  Location     Type
  5207 ;;		None
  5208 ;; Return value:  Size  Location     Type
  5209 ;;                  1    wreg      void 
  5210 ;; Registers used:
  5211 ;;		None
  5212 ;; Tracked objects:
  5213 ;;		On entry : 0/0
  5214 ;;		On exit  : 0/0
  5215 ;;		Unchanged: 0/0
  5216 ;; Data sizes:     COMMON   BANK0   BANK1   BANK2   BANK3   BANK4   BANK5   BANK6
  5217 ;;      Params:         0       0       0       0       0       0       0       0
  5218 ;;      Locals:         0       0       0       0       0       0       0       0
  5219 ;;      Temps:          0       0       0       0       0       0       0       0
  5220 ;;      Totals:         0       0       0       0       0       0       0       0
  5221 ;;Total ram usage:        0 bytes
  5222 ;; Hardware stack levels used: 1
  5223 ;; Hardware stack levels required when called: 4
  5224 ;; This function calls:
  5225 ;;		Nothing
  5226 ;; This function is called by:
  5227 ;;		_processLIN
  5228 ;; This function uses a non-reentrant model
  5229 ;;
  5230                           
  5231     06CA                     _DRL_OFF:	
  5232                           ;psect for function _DRL_OFF
  5233                           
  5234     06CA                     l30:	
  5235                           ;incstack = 0
  5236                           ; Regs used in _DRL_OFF: []
  5237                           
  5238     06CA  0022               	movlb	2	; select bank2
  5239     06CB  120D               	bcf	13,4	;volatile
  5240     06CC                     l32:
  5241     06CC  0008               	return
  5242     06CD                     __end_of_DRL_OFF:
  5243                           
  5244                           	psect	text36
  5245     0693                     __ptext36:	
  5246 ;; *************** function _LIN_stopTimer *****************
  5247 ;; Defined at:
  5248 ;;		line 333 in file "mcc_generated_files/LINDrivers/lin_slave.c"
  5249 ;; Parameters:    Size  Location     Type
  5250 ;;		None
  5251 ;; Auto vars:     Size  Location     Type
  5252 ;;		None
  5253 ;; Return value:  Size  Location     Type
  5254 ;;                  1    wreg      void 
  5255 ;; Registers used:
  5256 ;;		status,2
  5257 ;; Tracked objects:
  5258 ;;		On entry : 0/0
  5259 ;;		On exit  : 0/0
  5260 ;;		Unchanged: 0/0
  5261 ;; Data sizes:     COMMON   BANK0   BANK1   BANK2   BANK3   BANK4   BANK5   BANK6
  5262 ;;      Params:         0       0       0       0       0       0       0       0
  5263 ;;      Locals:         0       0       0       0       0       0       0       0
  5264 ;;      Temps:          0       0       0       0       0       0       0       0
  5265 ;;      Totals:         0       0       0       0       0       0       0       0
  5266 ;;Total ram usage:        0 bytes
  5267 ;; Hardware stack levels used: 1
  5268 ;; Hardware stack levels required when called: 4
  5269 ;; This function calls:
  5270 ;;		Nothing
  5271 ;; This function is called by:
  5272 ;;		_LIN_init
  5273 ;;		_LIN_handler
  5274 ;; This function uses a non-reentrant model
  5275 ;;
  5276                           
  5277     0693                     _LIN_stopTimer:	
  5278                           ;psect for function _LIN_stopTimer
  5279                           
  5280     0693                     l1903:	
  5281                           ;incstack = 0
  5282                           ; Regs used in _LIN_stopTimer: [status,2]
  5283                           
  5284                           
  5285                           ;mcc_generated_files/LINDrivers/lin_slave.c: 335:   CountCallBack = 0;
  5286     0693  0020               	movlb	0	; select bank0
  5287     0694  01C8               	clrf	_CountCallBack	;volatile
  5288                           
  5289                           ;mcc_generated_files/LINDrivers/lin_slave.c: 336:   LIN_timerRunning = 0;
  5290     0695  01C9               	clrf	_LIN_timerRunning
  5291     0696                     l281:
  5292     0696  0008               	return
  5293     0697                     __end_of_LIN_stopTimer:
  5294                           
  5295                           	psect	text37
  5296     0631                     __ptext37:	
  5297 ;; *************** function _LIN_startTimer *****************
  5298 ;; Defined at:
  5299 ;;		line 311 in file "mcc_generated_files/LINDrivers/lin_slave.c"
  5300 ;; Parameters:    Size  Location     Type
  5301 ;;  timeout         1    wreg     unsigned char 
  5302 ;; Auto vars:     Size  Location     Type
  5303 ;;  timeout         1    1[COMMON] unsigned char 
  5304 ;; Return value:  Size  Location     Type
  5305 ;;                  1    wreg      void 
  5306 ;; Registers used:
  5307 ;;		wreg, status,2, status,0, pclath, cstack
  5308 ;; Tracked objects:
  5309 ;;		On entry : 0/0
  5310 ;;		On exit  : 0/0
  5311 ;;		Unchanged: 0/0
  5312 ;; Data sizes:     COMMON   BANK0   BANK1   BANK2   BANK3   BANK4   BANK5   BANK6
  5313 ;;      Params:         0       0       0       0       0       0       0       0
  5314 ;;      Locals:         1       0       0       0       0       0       0       0
  5315 ;;      Temps:          0       0       0       0       0       0       0       0
  5316 ;;      Totals:         1       0       0       0       0       0       0       0
  5317 ;;Total ram usage:        1 bytes
  5318 ;; Hardware stack levels used: 1
  5319 ;; Hardware stack levels required when called: 5
  5320 ;; This function calls:
  5321 ;;		_TMR0_Reload
  5322 ;; This function is called by:
  5323 ;;		_LIN_handler
  5324 ;; This function uses a non-reentrant model
  5325 ;;
  5326                           
  5327     0631                     _LIN_startTimer:	
  5328                           ;psect for function _LIN_startTimer
  5329                           
  5330                           
  5331                           ;incstack = 0
  5332                           ; Regs used in _LIN_startTimer: [wreg+status,2+status,0+pclath+cstack]
  5333                           ;LIN_startTimer@timeout stored from wreg
  5334     0631  00F1               	movwf	LIN_startTimer@timeout
  5335     0632                     l2237:
  5336                           
  5337                           ;mcc_generated_files/LINDrivers/lin_slave.c: 312:   LIN_timeout = timeout;
  5338     0632  0871               	movf	LIN_startTimer@timeout,w
  5339     0633  0020               	movlb	0	; select bank0
  5340     0634  00E9               	movwf	_LIN_timeout
  5341     0635                     l2239:
  5342                           
  5343                           ;mcc_generated_files/LINDrivers/lin_slave.c: 314:   TMR0_Reload();
  5344     0635  3186  2697  3186   	fcall	_TMR0_Reload
  5345     0638                     l2241:
  5346                           
  5347                           ;mcc_generated_files/LINDrivers/lin_slave.c: 315:   LIN_timerRunning = 1;
  5348     0638  0020               	movlb	0	; select bank0
  5349     0639  01C9               	clrf	_LIN_timerRunning
  5350     063A  0AC9               	incf	_LIN_timerRunning,f
  5351     063B                     l271:
  5352     063B  0008               	return
  5353     063C                     __end_of_LIN_startTimer:
  5354                           
  5355                           	psect	text38
  5356     0697                     __ptext38:	
  5357 ;; *************** function _TMR0_Reload *****************
  5358 ;; Defined at:
  5359 ;;		line 106 in file "mcc_generated_files/tmr0.c"
  5360 ;; Parameters:    Size  Location     Type
  5361 ;;		None
  5362 ;; Auto vars:     Size  Location     Type
  5363 ;;		None
  5364 ;; Return value:  Size  Location     Type
  5365 ;;                  1    wreg      void 
  5366 ;; Registers used:
  5367 ;;		wreg
  5368 ;; Tracked objects:
  5369 ;;		On entry : 0/0
  5370 ;;		On exit  : 0/0
  5371 ;;		Unchanged: 0/0
  5372 ;; Data sizes:     COMMON   BANK0   BANK1   BANK2   BANK3   BANK4   BANK5   BANK6
  5373 ;;      Params:         0       0       0       0       0       0       0       0
  5374 ;;      Locals:         0       0       0       0       0       0       0       0
  5375 ;;      Temps:          0       0       0       0       0       0       0       0
  5376 ;;      Totals:         0       0       0       0       0       0       0       0
  5377 ;;Total ram usage:        0 bytes
  5378 ;; Hardware stack levels used: 1
  5379 ;; Hardware stack levels required when called: 4
  5380 ;; This function calls:
  5381 ;;		Nothing
  5382 ;; This function is called by:
  5383 ;;		_LIN_startTimer
  5384 ;; This function uses a non-reentrant model
  5385 ;;
  5386                           
  5387     0697                     _TMR0_Reload:	
  5388                           ;psect for function _TMR0_Reload
  5389                           
  5390     0697                     l2069:	
  5391                           ;incstack = 0
  5392                           ; Regs used in _TMR0_Reload: [wreg]
  5393                           
  5394                           
  5395                           ;mcc_generated_files/tmr0.c: 108:   TMR0 = timer0ReloadVal;
  5396     0697  0020               	movlb	0	; select bank0
  5397     0698  0840               	movf	_timer0ReloadVal,w	;volatile
  5398     0699  0095               	movwf	21	;volatile
  5399     069A                     l500:
  5400     069A  0008               	return
  5401     069B                     __end_of_TMR0_Reload:
  5402                           
  5403                           	psect	text39
  5404     02C1                     __ptext39:	
  5405 ;; *************** function _LIN_queuePacket *****************
  5406 ;; Defined at:
  5407 ;;		line 72 in file "mcc_generated_files/LINDrivers/lin_slave.c"
  5408 ;; Parameters:    Size  Location     Type
  5409 ;;  cmd             1    wreg     unsigned char 
  5410 ;; Auto vars:     Size  Location     Type
  5411 ;;  cmd             1    7[BANK0 ] unsigned char 
  5412 ;;  i               1    8[BANK0 ] unsigned char 
  5413 ;;  tempSchedule    2    9[BANK0 ] PTR const struct .
  5414 ;;		 -> NULL(0), scheduleTable(4), 
  5415 ;; Return value:  Size  Location     Type
  5416 ;;                  1    wreg      void 
  5417 ;; Registers used:
  5418 ;;		wreg, fsr0l, fsr0h, fsr1l, fsr1h, status,2, status,0, pclath, cstack
  5419 ;; Tracked objects:
  5420 ;;		On entry : 0/0
  5421 ;;		On exit  : 0/0
  5422 ;;		Unchanged: 0/0
  5423 ;; Data sizes:     COMMON   BANK0   BANK1   BANK2   BANK3   BANK4   BANK5   BANK6
  5424 ;;      Params:         0       0       0       0       0       0       0       0
  5425 ;;      Locals:         0       4       0       0       0       0       0       0
  5426 ;;      Temps:          0       4       0       0       0       0       0       0
  5427 ;;      Totals:         0       8       0       0       0       0       0       0
  5428 ;;Total ram usage:        8 bytes
  5429 ;; Hardware stack levels used: 1
  5430 ;; Hardware stack levels required when called: 6
  5431 ;; This function calls:
  5432 ;;		_LIN_getChecksum
  5433 ;;		_LIN_sendPacket
  5434 ;;		_memcpy
  5435 ;; This function is called by:
  5436 ;;		_LIN_handler
  5437 ;; This function uses a non-reentrant model
  5438 ;;
  5439                           
  5440     02C1                     _LIN_queuePacket:	
  5441                           ;psect for function _LIN_queuePacket
  5442                           
  5443                           
  5444                           ;incstack = 0
  5445                           ; Regs used in _LIN_queuePacket: [wreg-fsr1h+status,2+status,0+pclath+cstack]
  5446                           ;LIN_queuePacket@cmd stored from wreg
  5447     02C1  0020               	movlb	0	; select bank0
  5448     02C2  00E3               	movwf	LIN_queuePacket@cmd
  5449     02C3                     l2569:
  5450                           
  5451                           ;mcc_generated_files/LINDrivers/lin_slave.c: 73:   const lin_rx_cmd_t *tempSchedule =
  5452     02C3  083D               	movf	_LIN_rxCommand+1,w
  5453     02C4  00E6               	movwf	LIN_queuePacket@tempSchedule+1
  5454     02C5  083C               	movf	_LIN_rxCommand,w
  5455     02C6  00E5               	movwf	LIN_queuePacket@tempSchedule
  5456     02C7                     l2571:
  5457                           
  5458                           ;mcc_generated_files/LINDrivers/lin_slave.c: 76:   cmd &= 0x3F;
  5459     02C7  303F               	movlw	63
  5460     02C8  00DF               	movwf	??_LIN_queuePacket
  5461     02C9  085F               	movf	??_LIN_queuePacket,w
  5462     02CA  05E3               	andwf	LIN_queuePacket@cmd,f
  5463     02CB                     l2573:
  5464                           
  5465                           ;mcc_generated_files/LINDrivers/lin_slave.c: 77:   for (uint8_t i = 0; i < LIN_rxCommand
      +                          Length; i++) {
  5466     02CB  01E4               	clrf	LIN_queuePacket@i
  5467     02CC  2AE0               	goto	l2583
  5468     02CD                     l2575:
  5469                           
  5470                           ;mcc_generated_files/LINDrivers/lin_slave.c: 78:     if (cmd == tempSchedule->cmd) {
  5471     02CD  0865               	movf	LIN_queuePacket@tempSchedule,w
  5472     02CE  0084               	movwf	4
  5473     02CF  0866               	movf	LIN_queuePacket@tempSchedule+1,w
  5474     02D0  0085               	movwf	5
  5475     02D1  0800               	movf	0,w	;code access
  5476     02D2  0663               	xorwf	LIN_queuePacket@cmd,w
  5477     02D3  1D03               	skipz
  5478     02D4  2AD6               	goto	u2021
  5479     02D5  2AD7               	goto	u2020
  5480     02D6                     u2021:
  5481     02D6  2AD8               	goto	l2579
  5482     02D7                     u2020:
  5483     02D7  2AE6               	goto	l2585
  5484     02D8                     l2579:
  5485                           
  5486                           ;mcc_generated_files/LINDrivers/lin_slave.c: 81:     tempSchedule++;
  5487     02D8  3004               	movlw	4
  5488     02D9  07E5               	addwf	LIN_queuePacket@tempSchedule,f
  5489     02DA  3000               	movlw	0
  5490     02DB  3DE6               	addwfc	LIN_queuePacket@tempSchedule+1,f
  5491     02DC                     l2581:
  5492                           
  5493                           ;mcc_generated_files/LINDrivers/lin_slave.c: 82:   }
  5494     02DC  3001               	movlw	1
  5495     02DD  00DF               	movwf	??_LIN_queuePacket
  5496     02DE  085F               	movf	??_LIN_queuePacket,w
  5497     02DF  07E4               	addwf	LIN_queuePacket@i,f
  5498     02E0                     l2583:
  5499     02E0  084A               	movf	_LIN_rxCommandLength,w
  5500     02E1  0264               	subwf	LIN_queuePacket@i,w
  5501     02E2  1C03               	skipc
  5502     02E3  2AE5               	goto	u2031
  5503     02E4  2AE6               	goto	u2030
  5504     02E5                     u2031:
  5505     02E5  2ACD               	goto	l2575
  5506     02E6                     u2030:
  5507     02E6                     l2585:
  5508                           
  5509                           ;mcc_generated_files/LINDrivers/lin_slave.c: 84:   LIN_packet.type = tempSchedule->type;
  5510     02E6  0866               	movf	LIN_queuePacket@tempSchedule+1,w
  5511     02E7  00E0               	movwf	??_LIN_queuePacket+1
  5512     02E8  0865               	movf	LIN_queuePacket@tempSchedule,w
  5513     02E9  00DF               	movwf	??_LIN_queuePacket
  5514     02EA  3001               	movlw	1
  5515     02EB  075F               	addwf	??_LIN_queuePacket,w
  5516     02EC  0084               	movwf	4
  5517     02ED  0860               	movf	??_LIN_queuePacket+1,w
  5518     02EE  1803               	skipnc
  5519     02EF  0A60               	incf	??_LIN_queuePacket+1,w
  5520     02F0  0085               	movwf	5
  5521     02F1  0800               	movf	0,w	;code access
  5522     02F2  00D9               	movwf	_LIN_packet+10
  5523                           
  5524                           ;mcc_generated_files/LINDrivers/lin_slave.c: 85:   LIN_packet.length = tempSchedule->len
      +                          gth;
  5525     02F3  0866               	movf	LIN_queuePacket@tempSchedule+1,w
  5526     02F4  00E0               	movwf	??_LIN_queuePacket+1
  5527     02F5  0865               	movf	LIN_queuePacket@tempSchedule,w
  5528     02F6  00DF               	movwf	??_LIN_queuePacket
  5529     02F7  3002               	movlw	2
  5530     02F8  075F               	addwf	??_LIN_queuePacket,w
  5531     02F9  0084               	movwf	4
  5532     02FA  0860               	movf	??_LIN_queuePacket+1,w
  5533     02FB  1803               	skipnc
  5534     02FC  0A60               	incf	??_LIN_queuePacket+1,w
  5535     02FD  0085               	movwf	5
  5536     02FE  0800               	movf	0,w	;code access
  5537     02FF  00DA               	movwf	_LIN_packet+11
  5538     0300                     l2587:
  5539                           
  5540                           ;mcc_generated_files/LINDrivers/lin_slave.c: 89:   memcpy(LIN_packet.data, tempSchedule-
      +                          >data, LIN_packet.length);
  5541     0300  0866               	movf	LIN_queuePacket@tempSchedule+1,w
  5542     0301  00E0               	movwf	??_LIN_queuePacket+1
  5543     0302  0865               	movf	LIN_queuePacket@tempSchedule,w
  5544     0303  00DF               	movwf	??_LIN_queuePacket
  5545     0304  3003               	movlw	3
  5546     0305  075F               	addwf	??_LIN_queuePacket,w
  5547     0306  0084               	movwf	4
  5548     0307  0860               	movf	??_LIN_queuePacket+1,w
  5549     0308  1803               	skipnc
  5550     0309  0A60               	incf	??_LIN_queuePacket+1,w
  5551     030A  0085               	movwf	5
  5552     030B  0800               	movf	0,w	;code access
  5553     030C  00F1               	movwf	memcpy@s1
  5554     030D  085A               	movf	_LIN_packet+11,w
  5555     030E  00E1               	movwf	??_LIN_queuePacket+2
  5556     030F  01E2               	clrf	??_LIN_queuePacket+3
  5557     0310  0861               	movf	??_LIN_queuePacket+2,w
  5558     0311  00F2               	movwf	memcpy@n
  5559     0312  0862               	movf	??_LIN_queuePacket+3,w
  5560     0313  00F3               	movwf	memcpy@n+1
  5561     0314  3050               	movlw	(low ((_LIN_packet| 0+1)))& (0+255)
  5562     0315  3184  2494  3182   	fcall	_memcpy
  5563     0318                     l2589:
  5564                           
  5565                           ;mcc_generated_files/LINDrivers/lin_slave.c: 92:   LIN_packet.checksum =
  5566     0318  0020               	movlb	0	; select bank0
  5567     0319  084F               	movf	_LIN_packet,w
  5568     031A  00F1               	movwf	LIN_getChecksum@pid
  5569     031B  3050               	movlw	(low ((_LIN_packet| 0+1)))& (0+255)
  5570     031C  00F2               	movwf	LIN_getChecksum@data
  5571     031D  085A               	movf	_LIN_packet+11,w
  5572     031E  3184  2413  3182   	fcall	_LIN_getChecksum
  5573     0321  0020               	movlb	0	; select bank0
  5574     0322  00D8               	movwf	_LIN_packet+9
  5575     0323                     l2591:
  5576                           
  5577                           ;mcc_generated_files/LINDrivers/lin_slave.c: 94:   LIN_sendPacket(LIN_packet.length, LIN
      +                          _packet.PID, LIN_packet.data);
  5578     0323  084F               	movf	_LIN_packet,w
  5579     0324  00F9               	movwf	LIN_sendPacket@pid
  5580     0325  3050               	movlw	(low ((_LIN_packet| 0+1)))& (0+255)
  5581     0326  00FA               	movwf	LIN_sendPacket@data
  5582     0327  085A               	movf	_LIN_packet+11,w
  5583     0328  3184  24B9  3182   	fcall	_LIN_sendPacket
  5584     032B                     l191:
  5585     032B  0008               	return
  5586     032C                     __end_of_LIN_queuePacket:
  5587                           
  5588                           	psect	text40
  5589     0494                     __ptext40:	
  5590 ;; *************** function _memcpy *****************
  5591 ;; Defined at:
  5592 ;;		line 4 in file "C:\Program Files\Microchip\xc8\v2.46\pic\sources\c99\common\memcpy.c"
  5593 ;; Parameters:    Size  Location     Type
  5594 ;;  d1              1    wreg     PTR void 
  5595 ;;		 -> LIN_packet(13), processLIN@tempRxData(8), 
  5596 ;;  s1              1    1[COMMON] PTR const void 
  5597 ;;		 -> LIN_packet$data(8), LIN_packet(13), SW_STATE_Data(8), 
  5598 ;;  n               2    2[COMMON] unsigned int 
  5599 ;; Auto vars:     Size  Location     Type
  5600 ;;  d1              1    8[COMMON] PTR void 
  5601 ;;		 -> LIN_packet(13), processLIN@tempRxData(8), 
  5602 ;;  s               1    7[COMMON] PTR const unsigned char 
  5603 ;;		 -> LIN_packet$data(8), LIN_packet(13), SW_STATE_Data(8), 
  5604 ;;  d               1    6[COMMON] PTR unsigned char 
  5605 ;;		 -> LIN_packet(13), processLIN@tempRxData(8), 
  5606 ;;  tmp             1    5[COMMON] unsigned char 
  5607 ;; Return value:  Size  Location     Type
  5608 ;;                  1    wreg      PTR void 
  5609 ;; Registers used:
  5610 ;;		wreg, fsr1l, fsr1h, status,2, status,0
  5611 ;; Tracked objects:
  5612 ;;		On entry : 0/0
  5613 ;;		On exit  : 0/0
  5614 ;;		Unchanged: 0/0
  5615 ;; Data sizes:     COMMON   BANK0   BANK1   BANK2   BANK3   BANK4   BANK5   BANK6
  5616 ;;      Params:         3       0       0       0       0       0       0       0
  5617 ;;      Locals:         4       0       0       0       0       0       0       0
  5618 ;;      Temps:          1       0       0       0       0       0       0       0
  5619 ;;      Totals:         8       0       0       0       0       0       0       0
  5620 ;;Total ram usage:        8 bytes
  5621 ;; Hardware stack levels used: 1
  5622 ;; Hardware stack levels required when called: 4
  5623 ;; This function calls:
  5624 ;;		Nothing
  5625 ;; This function is called by:
  5626 ;;		_LIN_queuePacket
  5627 ;;		_LIN_getPacket
  5628 ;; This function uses a non-reentrant model
  5629 ;;
  5630                           
  5631     0494                     _memcpy:	
  5632                           ;psect for function _memcpy
  5633                           
  5634                           
  5635                           ;incstack = 0
  5636                           ; Regs used in _memcpy: [wreg+fsr1l+fsr1h+status,2+status,0]
  5637                           ;memcpy@d1 stored from wreg
  5638     0494  00F8               	movwf	memcpy@d1
  5639     0495                     l1909:
  5640     0495  0871               	movf	memcpy@s1,w
  5641     0496  00F7               	movwf	memcpy@s
  5642     0497  0878               	movf	memcpy@d1,w
  5643     0498  00F6               	movwf	memcpy@d
  5644     0499  2CAC               	goto	l1220
  5645     049A                     l1911:
  5646     049A  0877               	movf	memcpy@s,w
  5647     049B  0086               	movwf	6
  5648     049C  0187               	clrf	7
  5649     049D  0801               	movf	1,w
  5650     049E  00F5               	movwf	memcpy@tmp
  5651     049F                     l1913:
  5652     049F  3001               	movlw	1
  5653     04A0  00F4               	movwf	??_memcpy
  5654     04A1  0874               	movf	??_memcpy,w
  5655     04A2  07F7               	addwf	memcpy@s,f
  5656     04A3                     l1915:
  5657     04A3  0876               	movf	memcpy@d,w
  5658     04A4  0086               	movwf	6
  5659     04A5  0187               	clrf	7
  5660     04A6  0875               	movf	memcpy@tmp,w
  5661     04A7  0081               	movwf	1
  5662     04A8  3001               	movlw	1
  5663     04A9  00F4               	movwf	??_memcpy
  5664     04AA  0874               	movf	??_memcpy,w
  5665     04AB  07F6               	addwf	memcpy@d,f
  5666     04AC                     l1220:
  5667     04AC  3001               	movlw	1
  5668     04AD  02F2               	subwf	memcpy@n,f
  5669     04AE  3000               	movlw	0
  5670     04AF  3BF3               	subwfb	memcpy@n+1,f
  5671     04B0  0A72               	incf	memcpy@n,w
  5672     04B1  1D03               	skipz
  5673     04B2  2CB7               	goto	u1031
  5674     04B3  0A73               	incf	memcpy@n+1,w
  5675     04B4  1D03               	btfss	3,2
  5676     04B5  2CB7               	goto	u1031
  5677     04B6  2CB8               	goto	u1030
  5678     04B7                     u1031:
  5679     04B7  2C9A               	goto	l1911
  5680     04B8                     u1030:
  5681     04B8                     l1223:
  5682     04B8  0008               	return
  5683     04B9                     __end_of_memcpy:
  5684                           
  5685                           	psect	text41
  5686     04B9                     __ptext41:	
  5687 ;; *************** function _LIN_sendPacket *****************
  5688 ;; Defined at:
  5689 ;;		line 212 in file "mcc_generated_files/LINDrivers/lin_slave.c"
  5690 ;; Parameters:    Size  Location     Type
  5691 ;;  length          1    wreg     unsigned char 
  5692 ;;  pid             1    9[COMMON] unsigned char 
  5693 ;;  data            1   10[COMMON] PTR unsigned char 
  5694 ;;		 -> LIN_packet(13), 
  5695 ;; Auto vars:     Size  Location     Type
  5696 ;;  length          1    1[BANK0 ] unsigned char 
  5697 ;;  i               1    2[BANK0 ] unsigned char 
  5698 ;; Return value:  Size  Location     Type
  5699 ;;                  1    wreg      void 
  5700 ;; Registers used:
  5701 ;;		wreg, fsr1l, fsr1h, status,2, status,0, pclath, cstack
  5702 ;; Tracked objects:
  5703 ;;		On entry : 0/0
  5704 ;;		On exit  : 0/0
  5705 ;;		Unchanged: 0/0
  5706 ;; Data sizes:     COMMON   BANK0   BANK1   BANK2   BANK3   BANK4   BANK5   BANK6
  5707 ;;      Params:         2       0       0       0       0       0       0       0
  5708 ;;      Locals:         0       2       0       0       0       0       0       0
  5709 ;;      Temps:          0       1       0       0       0       0       0       0
  5710 ;;      Totals:         2       3       0       0       0       0       0       0
  5711 ;;Total ram usage:        5 bytes
  5712 ;; Hardware stack levels used: 1
  5713 ;; Hardware stack levels required when called: 5
  5714 ;; This function calls:
  5715 ;;		_EUSART_Write
  5716 ;;		_LIN_getChecksum
  5717 ;; This function is called by:
  5718 ;;		_LIN_queuePacket
  5719 ;; This function uses a non-reentrant model
  5720 ;;
  5721                           
  5722     04B9                     _LIN_sendPacket:	
  5723                           ;psect for function _LIN_sendPacket
  5724                           
  5725                           
  5726                           ;incstack = 0
  5727                           ; Regs used in _LIN_sendPacket: [wreg+fsr1l+fsr1h+status,2+status,0+pclath+cstack]
  5728                           ;LIN_sendPacket@length stored from wreg
  5729     04B9  0020               	movlb	0	; select bank0
  5730     04BA  00DD               	movwf	LIN_sendPacket@length
  5731     04BB                     l2559:
  5732                           
  5733                           ;mcc_generated_files/LINDrivers/lin_slave.c: 215:   for (uint8_t i = 0; i < length; i++)
      +                           {
  5734     04BB  01DE               	clrf	LIN_sendPacket@i
  5735     04BC  2CCC               	goto	l2565
  5736     04BD                     l2561:
  5737                           
  5738                           ;mcc_generated_files/LINDrivers/lin_slave.c: 216:     EUSART_Write(*(data + i));
  5739     04BD  085E               	movf	LIN_sendPacket@i,w
  5740     04BE  077A               	addwf	LIN_sendPacket@data,w
  5741     04BF  00DC               	movwf	??_LIN_sendPacket
  5742     04C0  085C               	movf	??_LIN_sendPacket,w
  5743     04C1  0086               	movwf	6
  5744     04C2  0187               	clrf	7
  5745     04C3  0801               	movf	1,w
  5746     04C4  3184  2446  3184   	fcall	_EUSART_Write
  5747     04C7                     l2563:
  5748                           
  5749                           ;mcc_generated_files/LINDrivers/lin_slave.c: 217:   }
  5750     04C7  3001               	movlw	1
  5751     04C8  0020               	movlb	0	; select bank0
  5752     04C9  00DC               	movwf	??_LIN_sendPacket
  5753     04CA  085C               	movf	??_LIN_sendPacket,w
  5754     04CB  07DE               	addwf	LIN_sendPacket@i,f
  5755     04CC                     l2565:
  5756     04CC  085D               	movf	LIN_sendPacket@length,w
  5757     04CD  025E               	subwf	LIN_sendPacket@i,w
  5758     04CE  1C03               	skipc
  5759     04CF  2CD1               	goto	u2011
  5760     04D0  2CD2               	goto	u2010
  5761     04D1                     u2011:
  5762     04D1  2CBD               	goto	l2561
  5763     04D2                     u2010:
  5764     04D2                     l2567:
  5765                           
  5766                           ;mcc_generated_files/LINDrivers/lin_slave.c: 219:   EUSART_Write(LIN_getChecksum(length,
      +                           pid, data));
  5767     04D2  0879               	movf	LIN_sendPacket@pid,w
  5768     04D3  00F1               	movwf	LIN_getChecksum@pid
  5769     04D4  087A               	movf	LIN_sendPacket@data,w
  5770     04D5  00F2               	movwf	LIN_getChecksum@data
  5771     04D6  085D               	movf	LIN_sendPacket@length,w
  5772     04D7  3184  2413  3184   	fcall	_LIN_getChecksum
  5773     04DA  3184  2446  3184   	fcall	_EUSART_Write
  5774     04DD                     l236:
  5775     04DD  0008               	return
  5776     04DE                     __end_of_LIN_sendPacket:
  5777                           
  5778                           	psect	text42
  5779     0413                     __ptext42:	
  5780 ;; *************** function _LIN_getChecksum *****************
  5781 ;; Defined at:
  5782 ;;		line 297 in file "mcc_generated_files/LINDrivers/lin_slave.c"
  5783 ;; Parameters:    Size  Location     Type
  5784 ;;  length          1    wreg     unsigned char 
  5785 ;;  pid             1    1[COMMON] unsigned char 
  5786 ;;  data            1    2[COMMON] PTR unsigned char 
  5787 ;;		 -> LIN_packet(13), 
  5788 ;; Auto vars:     Size  Location     Type
  5789 ;;  length          1    5[COMMON] unsigned char 
  5790 ;;  i               1    6[COMMON] unsigned char 
  5791 ;;  checksum        2    7[COMMON] unsigned short 
  5792 ;; Return value:  Size  Location     Type
  5793 ;;                  1    wreg      unsigned char 
  5794 ;; Registers used:
  5795 ;;		wreg, fsr1l, fsr1h, status,2, status,0
  5796 ;; Tracked objects:
  5797 ;;		On entry : 0/0
  5798 ;;		On exit  : 0/0
  5799 ;;		Unchanged: 0/0
  5800 ;; Data sizes:     COMMON   BANK0   BANK1   BANK2   BANK3   BANK4   BANK5   BANK6
  5801 ;;      Params:         2       0       0       0       0       0       0       0
  5802 ;;      Locals:         4       0       0       0       0       0       0       0
  5803 ;;      Temps:          2       0       0       0       0       0       0       0
  5804 ;;      Totals:         8       0       0       0       0       0       0       0
  5805 ;;Total ram usage:        8 bytes
  5806 ;; Hardware stack levels used: 1
  5807 ;; Hardware stack levels required when called: 4
  5808 ;; This function calls:
  5809 ;;		Nothing
  5810 ;; This function is called by:
  5811 ;;		_LIN_queuePacket
  5812 ;;		_LIN_handler
  5813 ;;		_LIN_sendPacket
  5814 ;; This function uses a non-reentrant model
  5815 ;;
  5816                           
  5817     0413                     _LIN_getChecksum:	
  5818                           ;psect for function _LIN_getChecksum
  5819                           
  5820                           
  5821                           ;incstack = 0
  5822                           ; Regs used in _LIN_getChecksum: [wreg+fsr1l+fsr1h+status,2+status,0]
  5823                           ;LIN_getChecksum@length stored from wreg
  5824     0413  00F5               	movwf	LIN_getChecksum@length
  5825     0414                     l1917:
  5826                           
  5827                           ;mcc_generated_files/LINDrivers/lin_slave.c: 298:   uint16_t checksum = pid;
  5828     0414  0871               	movf	LIN_getChecksum@pid,w
  5829     0415  00F3               	movwf	??_LIN_getChecksum
  5830     0416  01F4               	clrf	??_LIN_getChecksum+1
  5831     0417  0873               	movf	??_LIN_getChecksum,w
  5832     0418  00F7               	movwf	LIN_getChecksum@checksum
  5833     0419  0874               	movf	??_LIN_getChecksum+1,w
  5834     041A  00F8               	movwf	LIN_getChecksum@checksum+1
  5835     041B                     l1919:
  5836                           
  5837                           ;mcc_generated_files/LINDrivers/lin_slave.c: 300:   for (uint8_t i = 0; i < length; i++)
      +                           {
  5838     041B  01F6               	clrf	LIN_getChecksum@i
  5839     041C  2C3C               	goto	l1931
  5840     041D                     l1921:
  5841                           
  5842                           ;mcc_generated_files/LINDrivers/lin_slave.c: 301:     checksum = checksum + *data++;
  5843     041D  0872               	movf	LIN_getChecksum@data,w
  5844     041E  0086               	movwf	6
  5845     041F  0187               	clrf	7
  5846     0420  0801               	movf	1,w
  5847     0421  0777               	addwf	LIN_getChecksum@checksum,w
  5848     0422  00F7               	movwf	LIN_getChecksum@checksum
  5849     0423  0878               	movf	LIN_getChecksum@checksum+1,w
  5850     0424  1803               	skipnc
  5851     0425  0A78               	incf	LIN_getChecksum@checksum+1,w
  5852     0426  00F8               	movwf	LIN_getChecksum@checksum+1
  5853     0427                     l1923:
  5854     0427  3001               	movlw	1
  5855     0428  00F3               	movwf	??_LIN_getChecksum
  5856     0429  0873               	movf	??_LIN_getChecksum,w
  5857     042A  07F2               	addwf	LIN_getChecksum@data,f
  5858     042B                     l1925:
  5859                           
  5860                           ;mcc_generated_files/LINDrivers/lin_slave.c: 302:     if (checksum > 0xFF)
  5861     042B  3001               	movlw	1
  5862     042C  0278               	subwf	LIN_getChecksum@checksum+1,w
  5863     042D  3000               	movlw	0
  5864     042E  1903               	skipnz
  5865     042F  0277               	subwf	LIN_getChecksum@checksum,w
  5866     0430  1C03               	skipc
  5867     0431  2C33               	goto	u1041
  5868     0432  2C34               	goto	u1040
  5869     0433                     u1041:
  5870     0433  2C38               	goto	l1929
  5871     0434                     u1040:
  5872     0434                     l1927:
  5873                           
  5874                           ;mcc_generated_files/LINDrivers/lin_slave.c: 303:       checksum -= 0xFF;
  5875     0434  30FF               	movlw	255
  5876     0435  02F7               	subwf	LIN_getChecksum@checksum,f
  5877     0436  3000               	movlw	0
  5878     0437  3BF8               	subwfb	LIN_getChecksum@checksum+1,f
  5879     0438                     l1929:
  5880                           
  5881                           ;mcc_generated_files/LINDrivers/lin_slave.c: 304:   }
  5882     0438  3001               	movlw	1
  5883     0439  00F3               	movwf	??_LIN_getChecksum
  5884     043A  0873               	movf	??_LIN_getChecksum,w
  5885     043B  07F6               	addwf	LIN_getChecksum@i,f
  5886     043C                     l1931:
  5887     043C  0875               	movf	LIN_getChecksum@length,w
  5888     043D  0276               	subwf	LIN_getChecksum@i,w
  5889     043E  1C03               	skipc
  5890     043F  2C41               	goto	u1051
  5891     0440  2C42               	goto	u1050
  5892     0441                     u1051:
  5893     0441  2C1D               	goto	l1921
  5894     0442                     u1050:
  5895     0442                     l267:
  5896                           
  5897                           ;mcc_generated_files/LINDrivers/lin_slave.c: 305:   checksum = ~checksum;
  5898     0442  09F7               	comf	LIN_getChecksum@checksum,f
  5899     0443  09F8               	comf	LIN_getChecksum@checksum+1,f
  5900     0444                     l1933:
  5901                           
  5902                           ;mcc_generated_files/LINDrivers/lin_slave.c: 307:   return (uint8_t)checksum;
  5903     0444  0877               	movf	LIN_getChecksum@checksum,w
  5904     0445                     l268:
  5905     0445  0008               	return
  5906     0446                     __end_of_LIN_getChecksum:
  5907                           
  5908                           	psect	text43
  5909     0446                     __ptext43:	
  5910 ;; *************** function _EUSART_Write *****************
  5911 ;; Defined at:
  5912 ;;		line 192 in file "mcc_generated_files/eusart.c"
  5913 ;; Parameters:    Size  Location     Type
  5914 ;;  txData          1    wreg     unsigned char 
  5915 ;; Auto vars:     Size  Location     Type
  5916 ;;  txData          1    2[COMMON] unsigned char 
  5917 ;; Return value:  Size  Location     Type
  5918 ;;                  1    wreg      void 
  5919 ;; Registers used:
  5920 ;;		wreg, fsr1l, fsr1h, status,2, status,0
  5921 ;; Tracked objects:
  5922 ;;		On entry : 0/0
  5923 ;;		On exit  : 0/0
  5924 ;;		Unchanged: 0/0
  5925 ;; Data sizes:     COMMON   BANK0   BANK1   BANK2   BANK3   BANK4   BANK5   BANK6
  5926 ;;      Params:         0       0       0       0       0       0       0       0
  5927 ;;      Locals:         1       0       0       0       0       0       0       0
  5928 ;;      Temps:          1       0       0       0       0       0       0       0
  5929 ;;      Totals:         2       0       0       0       0       0       0       0
  5930 ;;Total ram usage:        2 bytes
  5931 ;; Hardware stack levels used: 1
  5932 ;; Hardware stack levels required when called: 4
  5933 ;; This function calls:
  5934 ;;		Nothing
  5935 ;; This function is called by:
  5936 ;;		_LIN_sendPacket
  5937 ;; This function uses a non-reentrant model
  5938 ;;
  5939                           
  5940     0446                     _EUSART_Write:	
  5941                           ;psect for function _EUSART_Write
  5942                           
  5943                           
  5944                           ;incstack = 0
  5945                           ; Regs used in _EUSART_Write: [wreg+fsr1l+fsr1h+status,2+status,0]
  5946                           ;EUSART_Write@txData stored from wreg
  5947     0446  00F2               	movwf	EUSART_Write@txData
  5948     0447                     l1945:
  5949     0447                     l1947:	
  5950                           ;mcc_generated_files/eusart.c: 192: void EUSART_Write(uint8_t txData);mcc_generated_file
      +                          s/eusart.c: 193: {;mcc_generated_files/eusart.c: 195:     while(0 == eusartTxBufferRemai
      +                          ning)
  5951                           
  5952                           
  5953                           ;mcc_generated_files/eusart.c: 195:     while(0 == eusartTxBufferRemaining)
  5954     0447  0020               	movlb	0	; select bank0
  5955     0448  0843               	movf	_eusartTxBufferRemaining,w	;volatile
  5956     0449  1903               	btfsc	3,2
  5957     044A  2C4C               	goto	u1071
  5958     044B  2C4D               	goto	u1070
  5959     044C                     u1071:
  5960     044C  2C47               	goto	l1947
  5961     044D                     u1070:
  5962     044D                     l425:
  5963                           
  5964                           ;mcc_generated_files/eusart.c: 200:     if(0 == PIE1bits.TXIE)
  5965     044D  0021               	movlb	1	; select bank1
  5966     044E  1A11               	btfsc	17,4	;volatile
  5967     044F  2C51               	goto	u1081
  5968     0450  2C52               	goto	u1080
  5969     0451                     u1081:
  5970     0451  2C56               	goto	l426
  5971     0452                     u1080:
  5972     0452                     l1949:
  5973                           
  5974                           ;mcc_generated_files/eusart.c: 201:     {;mcc_generated_files/eusart.c: 202:         TXR
      +                          EG = txData;
  5975     0452  0872               	movf	EUSART_Write@txData,w
  5976     0453  0023               	movlb	3	; select bank3
  5977     0454  009A               	movwf	26	;volatile
  5978                           
  5979                           ;mcc_generated_files/eusart.c: 203:     }
  5980     0455  2C6B               	goto	l1961
  5981     0456                     l426:	
  5982                           ;mcc_generated_files/eusart.c: 204:     else
  5983                           
  5984                           
  5985                           ;mcc_generated_files/eusart.c: 205:     {;mcc_generated_files/eusart.c: 206:         PIE
      +                          1bits.TXIE = 0;
  5986     0456  1211               	bcf	17,4	;volatile
  5987     0457                     l1951:
  5988                           
  5989                           ;mcc_generated_files/eusart.c: 207:         eusartTxBuffer[eusartTxHead++] = txData;
  5990     0457  0020               	movlb	0	; select bank0
  5991     0458  0845               	movf	_eusartTxHead,w
  5992     0459  3E28               	addlw	(low (_eusartTxBuffer| 0))& (0+255)
  5993     045A  0086               	movwf	6
  5994     045B  0187               	clrf	7
  5995     045C  0872               	movf	EUSART_Write@txData,w
  5996     045D  0081               	movwf	1
  5997     045E                     l1953:
  5998     045E  3001               	movlw	1
  5999     045F  00F1               	movwf	??_EUSART_Write
  6000     0460  0871               	movf	??_EUSART_Write,w
  6001     0461  07C5               	addwf	_eusartTxHead,f	;volatile
  6002     0462                     l1955:
  6003                           
  6004                           ;mcc_generated_files/eusart.c: 208:         if(sizeof(eusartTxBuffer) <= eusartTxHead)
  6005     0462  3008               	movlw	8
  6006     0463  0245               	subwf	_eusartTxHead,w	;volatile
  6007     0464  1C03               	skipc
  6008     0465  2C67               	goto	u1091
  6009     0466  2C68               	goto	u1090
  6010     0467                     u1091:
  6011     0467  2C69               	goto	l1959
  6012     0468                     u1090:
  6013     0468                     l1957:
  6014                           
  6015                           ;mcc_generated_files/eusart.c: 209:         {;mcc_generated_files/eusart.c: 210:        
      +                               eusartTxHead = 0;
  6016     0468  01C5               	clrf	_eusartTxHead	;volatile
  6017     0469                     l1959:
  6018                           
  6019                           ;mcc_generated_files/eusart.c: 212:         eusartTxBufferRemaining--;
  6020     0469  3001               	movlw	1
  6021     046A  02C3               	subwf	_eusartTxBufferRemaining,f	;volatile
  6022     046B                     l1961:
  6023                           
  6024                           ;mcc_generated_files/eusart.c: 214:     PIE1bits.TXIE = 1;
  6025     046B  0021               	movlb	1	; select bank1
  6026     046C  1611               	bsf	17,4	;volatile
  6027     046D                     l429:
  6028     046D  0008               	return
  6029     046E                     __end_of_EUSART_Write:
  6030                           
  6031                           	psect	text44
  6032     067C                     __ptext44:	
  6033 ;; *************** function _LIN_enableRx *****************
  6034 ;; Defined at:
  6035 ;;		line 340 in file "mcc_generated_files/LINDrivers/lin_slave.c"
  6036 ;; Parameters:    Size  Location     Type
  6037 ;;		None
  6038 ;; Auto vars:     Size  Location     Type
  6039 ;;		None
  6040 ;; Return value:  Size  Location     Type
  6041 ;;                  1    wreg      void 
  6042 ;; Registers used:
  6043 ;;		None
  6044 ;; Tracked objects:
  6045 ;;		On entry : 0/0
  6046 ;;		On exit  : 0/0
  6047 ;;		Unchanged: 0/0
  6048 ;; Data sizes:     COMMON   BANK0   BANK1   BANK2   BANK3   BANK4   BANK5   BANK6
  6049 ;;      Params:         0       0       0       0       0       0       0       0
  6050 ;;      Locals:         0       0       0       0       0       0       0       0
  6051 ;;      Temps:          0       0       0       0       0       0       0       0
  6052 ;;      Totals:         0       0       0       0       0       0       0       0
  6053 ;;Total ram usage:        0 bytes
  6054 ;; Hardware stack levels used: 1
  6055 ;; Hardware stack levels required when called: 4
  6056 ;; This function calls:
  6057 ;;		Nothing
  6058 ;; This function is called by:
  6059 ;;		_LIN_init
  6060 ;;		_LIN_handler
  6061 ;; This function uses a non-reentrant model
  6062 ;;
  6063                           
  6064     067C                     _LIN_enableRx:	
  6065                           ;psect for function _LIN_enableRx
  6066                           
  6067     067C                     l1905:	
  6068                           ;incstack = 0
  6069                           ; Regs used in _LIN_enableRx: []
  6070                           
  6071                           
  6072                           ;mcc_generated_files/LINDrivers/lin_slave.c: 341:   RCSTAbits.CREN = 1;
  6073     067C  0023               	movlb	3	; select bank3
  6074     067D  161D               	bsf	29,4	;volatile
  6075                           
  6076                           ;mcc_generated_files/LINDrivers/lin_slave.c: 342:   PIE1bits.RCIE = 1;
  6077     067E  0021               	movlb	1	; select bank1
  6078     067F  1691               	bsf	17,5	;volatile
  6079     0680                     l284:
  6080     0680  0008               	return
  6081     0681                     __end_of_LIN_enableRx:
  6082                           
  6083                           	psect	text45
  6084     0681                     __ptext45:	
  6085 ;; *************** function _LIN_disableRx *****************
  6086 ;; Defined at:
  6087 ;;		line 346 in file "mcc_generated_files/LINDrivers/lin_slave.c"
  6088 ;; Parameters:    Size  Location     Type
  6089 ;;		None
  6090 ;; Auto vars:     Size  Location     Type
  6091 ;;		None
  6092 ;; Return value:  Size  Location     Type
  6093 ;;                  1    wreg      void 
  6094 ;; Registers used:
  6095 ;;		None
  6096 ;; Tracked objects:
  6097 ;;		On entry : 0/0
  6098 ;;		On exit  : 0/0
  6099 ;;		Unchanged: 0/0
  6100 ;; Data sizes:     COMMON   BANK0   BANK1   BANK2   BANK3   BANK4   BANK5   BANK6
  6101 ;;      Params:         0       0       0       0       0       0       0       0
  6102 ;;      Locals:         0       0       0       0       0       0       0       0
  6103 ;;      Temps:          0       0       0       0       0       0       0       0
  6104 ;;      Totals:         0       0       0       0       0       0       0       0
  6105 ;;Total ram usage:        0 bytes
  6106 ;; Hardware stack levels used: 1
  6107 ;; Hardware stack levels required when called: 4
  6108 ;; This function calls:
  6109 ;;		Nothing
  6110 ;; This function is called by:
  6111 ;;		_LIN_handler
  6112 ;; This function uses a non-reentrant model
  6113 ;;
  6114                           
  6115     0681                     _LIN_disableRx:	
  6116                           ;psect for function _LIN_disableRx
  6117                           
  6118     0681                     l2271:	
  6119                           ;incstack = 0
  6120                           ; Regs used in _LIN_disableRx: []
  6121                           
  6122                           
  6123                           ;mcc_generated_files/LINDrivers/lin_slave.c: 347:   RCSTAbits.CREN = 0;
  6124     0681  0023               	movlb	3	; select bank3
  6125     0682  121D               	bcf	29,4	;volatile
  6126                           
  6127                           ;mcc_generated_files/LINDrivers/lin_slave.c: 348:   PIE1bits.RCIE = 0;
  6128     0683  0021               	movlb	1	; select bank1
  6129     0684  1291               	bcf	17,5	;volatile
  6130     0685                     l287:
  6131     0685  0008               	return
  6132     0686                     __end_of_LIN_disableRx:
  6133                           
  6134                           	psect	text46
  6135     056B                     __ptext46:	
  6136 ;; *************** function _LIN_checkPID *****************
  6137 ;; Defined at:
  6138 ;;		line 266 in file "mcc_generated_files/LINDrivers/lin_slave.c"
  6139 ;; Parameters:    Size  Location     Type
  6140 ;;  pid             1    wreg     unsigned char 
  6141 ;; Auto vars:     Size  Location     Type
  6142 ;;  pid             1    8[COMMON] unsigned char 
  6143 ;; Return value:  Size  Location     Type
  6144 ;;                  1    wreg      _Bool 
  6145 ;; Registers used:
  6146 ;;		wreg, fsr0l, fsr0h, status,2, status,0, pclath, cstack
  6147 ;; Tracked objects:
  6148 ;;		On entry : 0/0
  6149 ;;		On exit  : 0/0
  6150 ;;		Unchanged: 0/0
  6151 ;; Data sizes:     COMMON   BANK0   BANK1   BANK2   BANK3   BANK4   BANK5   BANK6
  6152 ;;      Params:         0       0       0       0       0       0       0       0
  6153 ;;      Locals:         1       0       0       0       0       0       0       0
  6154 ;;      Temps:          0       0       0       0       0       0       0       0
  6155 ;;      Totals:         1       0       0       0       0       0       0       0
  6156 ;;Total ram usage:        1 bytes
  6157 ;; Hardware stack levels used: 1
  6158 ;; Hardware stack levels required when called: 5
  6159 ;; This function calls:
  6160 ;;		_LIN_calcParity
  6161 ;;		_LIN_getFromTable
  6162 ;; This function is called by:
  6163 ;;		_LIN_handler
  6164 ;; This function uses a non-reentrant model
  6165 ;;
  6166                           
  6167     056B                     _LIN_checkPID:	
  6168                           ;psect for function _LIN_checkPID
  6169                           
  6170                           
  6171                           ;incstack = 0
  6172                           ; Regs used in _LIN_checkPID: [wreg-fsr0h+status,2+status,0+pclath+cstack]
  6173                           ;LIN_checkPID@pid stored from wreg
  6174     056B  00F8               	movwf	LIN_checkPID@pid
  6175     056C                     l2255:
  6176                           
  6177                           ;mcc_generated_files/LINDrivers/lin_slave.c: 268:   if (LIN_getFromTable(pid, TYPE) == E
      +                          RROR)
  6178     056C  01F1               	clrf	LIN_getFromTable@param
  6179     056D  0AF1               	incf	LIN_getFromTable@param,f
  6180     056E  0878               	movf	LIN_checkPID@pid,w
  6181     056F  3183  232C  3185   	fcall	_LIN_getFromTable
  6182     0572  3A02               	xorlw	2
  6183     0573  1D03               	skipz
  6184     0574  2D76               	goto	u1701
  6185     0575  2D77               	goto	u1700
  6186     0576                     u1701:
  6187     0576  2D79               	goto	l2261
  6188     0577                     u1700:
  6189     0577                     l2257:
  6190                           
  6191                           ;mcc_generated_files/LINDrivers/lin_slave.c: 269:     return 0;
  6192     0577  3000               	movlw	0
  6193     0578  2D84               	goto	l257
  6194     0579                     l2261:
  6195                           
  6196                           ;mcc_generated_files/LINDrivers/lin_slave.c: 272:   if (pid == LIN_calcParity(pid & 0x3F
      +                          ))
  6197     0579  0878               	movf	LIN_checkPID@pid,w
  6198     057A  393F               	andlw	63
  6199     057B  3182  223B  3185   	fcall	_LIN_calcParity
  6200     057E  0678               	xorwf	LIN_checkPID@pid,w
  6201     057F  1D03               	skipz
  6202     0580  2D82               	goto	u1711
  6203     0581  2D83               	goto	u1710
  6204     0582                     u1711:
  6205     0582  2D77               	goto	l2257
  6206     0583                     u1710:
  6207     0583                     l2263:
  6208                           
  6209                           ;mcc_generated_files/LINDrivers/lin_slave.c: 273:     return 1;
  6210     0583  3001               	movlw	1
  6211     0584                     l257:
  6212     0584  0008               	return
  6213     0585                     __end_of_LIN_checkPID:
  6214                           
  6215                           	psect	text47
  6216     032C                     __ptext47:	
  6217 ;; *************** function _LIN_getFromTable *****************
  6218 ;; Defined at:
  6219 ;;		line 233 in file "mcc_generated_files/LINDrivers/lin_slave.c"
  6220 ;; Parameters:    Size  Location     Type
  6221 ;;  cmd             1    wreg     unsigned char 
  6222 ;;  param           1    1[COMMON] enum E53
  6223 ;; Auto vars:     Size  Location     Type
  6224 ;;  cmd             1    4[COMMON] unsigned char 
  6225 ;;  length          1    5[COMMON] unsigned char 
  6226 ;;  rxCommand       2    6[COMMON] PTR const struct .
  6227 ;;		 -> NULL(0), scheduleTable(4), 
  6228 ;; Return value:  Size  Location     Type
  6229 ;;                  1    wreg      unsigned char 
  6230 ;; Registers used:
  6231 ;;		wreg, fsr0l, fsr0h, status,2, status,0, pclath
  6232 ;; Tracked objects:
  6233 ;;		On entry : 0/0
  6234 ;;		On exit  : 0/0
  6235 ;;		Unchanged: 0/0
  6236 ;; Data sizes:     COMMON   BANK0   BANK1   BANK2   BANK3   BANK4   BANK5   BANK6
  6237 ;;      Params:         1       0       0       0       0       0       0       0
  6238 ;;      Locals:         4       0       0       0       0       0       0       0
  6239 ;;      Temps:          2       0       0       0       0       0       0       0
  6240 ;;      Totals:         7       0       0       0       0       0       0       0
  6241 ;;Total ram usage:        7 bytes
  6242 ;; Hardware stack levels used: 1
  6243 ;; Hardware stack levels required when called: 4
  6244 ;; This function calls:
  6245 ;;		Nothing
  6246 ;; This function is called by:
  6247 ;;		_LIN_handler
  6248 ;;		_LIN_checkPID
  6249 ;; This function uses a non-reentrant model
  6250 ;;
  6251                           
  6252     032C                     _LIN_getFromTable:	
  6253                           ;psect for function _LIN_getFromTable
  6254                           
  6255                           
  6256                           ;incstack = 0
  6257                           ; Regs used in _LIN_getFromTable: [wreg-fsr0h+status,2+status,0+pclath]
  6258                           ;LIN_getFromTable@cmd stored from wreg
  6259     032C  00F4               	movwf	LIN_getFromTable@cmd
  6260     032D                     l2013:
  6261                           
  6262                           ;mcc_generated_files/LINDrivers/lin_slave.c: 234:   const lin_rx_cmd_t *rxCommand =
  6263     032D  0020               	movlb	0	; select bank0
  6264     032E  083D               	movf	_LIN_rxCommand+1,w
  6265     032F  00F7               	movwf	LIN_getFromTable@rxCommand+1
  6266     0330  083C               	movf	_LIN_rxCommand,w
  6267     0331  00F6               	movwf	LIN_getFromTable@rxCommand
  6268     0332                     l2015:
  6269                           
  6270                           ;mcc_generated_files/LINDrivers/lin_slave.c: 237:   cmd &= 0x3F;
  6271     0332  303F               	movlw	63
  6272     0333  00F2               	movwf	??_LIN_getFromTable
  6273     0334  0872               	movf	??_LIN_getFromTable,w
  6274     0335  05F4               	andwf	LIN_getFromTable@cmd,f
  6275     0336                     l2017:
  6276                           
  6277                           ;mcc_generated_files/LINDrivers/lin_slave.c: 239:   for (uint8_t length = 0; length < LI
      +                          N_rxCommandLength; length++) {
  6278     0336  01F5               	clrf	LIN_getFromTable@length
  6279     0337  2B5B               	goto	l2031
  6280     0338                     l2019:
  6281                           
  6282                           ;mcc_generated_files/LINDrivers/lin_slave.c: 241:     if (cmd == rxCommand->cmd) {
  6283     0338  0876               	movf	LIN_getFromTable@rxCommand,w
  6284     0339  0084               	movwf	4
  6285     033A  0877               	movf	LIN_getFromTable@rxCommand+1,w
  6286     033B  0085               	movwf	5
  6287     033C  0800               	movf	0,w	;code access
  6288     033D  0674               	xorwf	LIN_getFromTable@cmd,w
  6289     033E  1D03               	skipz
  6290     033F  2B41               	goto	u1131
  6291     0340  2B42               	goto	u1130
  6292     0341                     u1131:
  6293     0341  2B43               	goto	l2023
  6294     0342                     u1130:
  6295     0342  2B82               	goto	l2047
  6296     0343                     l2023:
  6297                           
  6298                           ;mcc_generated_files/LINDrivers/lin_slave.c: 244:     rxCommand++;
  6299     0343  3004               	movlw	4
  6300     0344  07F6               	addwf	LIN_getFromTable@rxCommand,f
  6301     0345  3000               	movlw	0
  6302     0346  3DF7               	addwfc	LIN_getFromTable@rxCommand+1,f
  6303                           
  6304                           ;mcc_generated_files/LINDrivers/lin_slave.c: 247:     if (length == (LIN_rxCommandLength
      +                           - 1)) {
  6305     0347  084A               	movf	_LIN_rxCommandLength,w
  6306     0348  3EFF               	addlw	255
  6307     0349  00F2               	movwf	??_LIN_getFromTable
  6308     034A  30FF               	movlw	255
  6309     034B  1803               	skipnc
  6310     034C  3000               	movlw	0
  6311     034D  00F3               	movwf	??_LIN_getFromTable+1
  6312     034E  0875               	movf	LIN_getFromTable@length,w
  6313     034F  0672               	xorwf	??_LIN_getFromTable,w
  6314     0350  0473               	iorwf	??_LIN_getFromTable+1,w
  6315     0351  1D03               	skipz
  6316     0352  2B54               	goto	u1141
  6317     0353  2B55               	goto	u1140
  6318     0354                     u1141:
  6319     0354  2B57               	goto	l2029
  6320     0355                     u1140:
  6321     0355                     l2025:
  6322                           
  6323                           ;mcc_generated_files/LINDrivers/lin_slave.c: 248:       return ERROR;
  6324     0355  3002               	movlw	2
  6325     0356  2B95               	goto	l247
  6326     0357                     l2029:
  6327                           
  6328                           ;mcc_generated_files/LINDrivers/lin_slave.c: 250:   }
  6329     0357  3001               	movlw	1
  6330     0358  00F2               	movwf	??_LIN_getFromTable
  6331     0359  0872               	movf	??_LIN_getFromTable,w
  6332     035A  07F5               	addwf	LIN_getFromTable@length,f
  6333     035B                     l2031:
  6334     035B  084A               	movf	_LIN_rxCommandLength,w
  6335     035C  0275               	subwf	LIN_getFromTable@length,w
  6336     035D  1C03               	skipc
  6337     035E  2B60               	goto	u1151
  6338     035F  2B61               	goto	u1150
  6339     0360                     u1151:
  6340     0360  2B38               	goto	l2019
  6341     0361                     u1150:
  6342     0361  2B82               	goto	l2047
  6343     0362                     l2033:
  6344                           
  6345                           ;mcc_generated_files/LINDrivers/lin_slave.c: 254:     return rxCommand->cmd;
  6346     0362  0876               	movf	LIN_getFromTable@rxCommand,w
  6347     0363  0084               	movwf	4
  6348     0364  0877               	movf	LIN_getFromTable@rxCommand+1,w
  6349     0365  0085               	movwf	5
  6350     0366  0800               	movf	0,w	;code access
  6351     0367  2B95               	goto	l247
  6352     0368                     l2037:
  6353                           
  6354                           ;mcc_generated_files/LINDrivers/lin_slave.c: 256:     return rxCommand->type;
  6355     0368  0877               	movf	LIN_getFromTable@rxCommand+1,w
  6356     0369  00F3               	movwf	??_LIN_getFromTable+1
  6357     036A  0876               	movf	LIN_getFromTable@rxCommand,w
  6358     036B  00F2               	movwf	??_LIN_getFromTable
  6359     036C  3001               	movlw	1
  6360     036D  0772               	addwf	??_LIN_getFromTable,w
  6361     036E  0084               	movwf	4
  6362     036F  0873               	movf	??_LIN_getFromTable+1,w
  6363     0370  1803               	skipnc
  6364     0371  0A73               	incf	??_LIN_getFromTable+1,w
  6365     0372  0085               	movwf	5
  6366     0373  0800               	movf	0,w	;code access
  6367     0374  2B95               	goto	l247
  6368     0375                     l2041:
  6369                           
  6370                           ;mcc_generated_files/LINDrivers/lin_slave.c: 258:     return rxCommand->length;
  6371     0375  0877               	movf	LIN_getFromTable@rxCommand+1,w
  6372     0376  00F3               	movwf	??_LIN_getFromTable+1
  6373     0377  0876               	movf	LIN_getFromTable@rxCommand,w
  6374     0378  00F2               	movwf	??_LIN_getFromTable
  6375     0379  3002               	movlw	2
  6376     037A  0772               	addwf	??_LIN_getFromTable,w
  6377     037B  0084               	movwf	4
  6378     037C  0873               	movf	??_LIN_getFromTable+1,w
  6379     037D  1803               	skipnc
  6380     037E  0A73               	incf	??_LIN_getFromTable+1,w
  6381     037F  0085               	movwf	5
  6382     0380  0800               	movf	0,w	;code access
  6383     0381  2B95               	goto	l247
  6384     0382                     l2047:
  6385     0382  0871               	movf	LIN_getFromTable@param,w
  6386     0383  00F2               	movwf	??_LIN_getFromTable
  6387     0384  01F3               	clrf	??_LIN_getFromTable+1
  6388                           
  6389                           ; Switch on 2 bytes has been partitioned into a top level switch of size 1, and 1 sub-sw
      +                          itches
  6390                           ; Switch size 1, requested type "simple"
  6391                           ; Number of cases is 1, Range of values is 0 to 0
  6392                           ; switch strategies available:
  6393                           ; Name         Instructions Cycles
  6394                           ; simple_byte            4     3 (average)
  6395                           ; direct_byte            8     6 (fixed)
  6396                           ; jumptable            260     6 (fixed)
  6397                           ;	Chosen strategy is simple_byte
  6398     0385  0873               	movf	??_LIN_getFromTable+1,w
  6399     0386  3A00               	xorlw	0	; case 0
  6400     0387  1903               	skipnz
  6401     0388  2B8A               	goto	l2763
  6402     0389  2B55               	goto	l2025
  6403     038A                     l2763:
  6404                           
  6405                           ; Switch size 1, requested type "simple"
  6406                           ; Number of cases is 3, Range of values is 0 to 2
  6407                           ; switch strategies available:
  6408                           ; Name         Instructions Cycles
  6409                           ; simple_byte           10     6 (average)
  6410                           ; direct_byte           12     6 (fixed)
  6411                           ; jumptable            260     6 (fixed)
  6412                           ;	Chosen strategy is simple_byte
  6413     038A  0872               	movf	??_LIN_getFromTable,w
  6414     038B  3A00               	xorlw	0	; case 0
  6415     038C  1903               	skipnz
  6416     038D  2B62               	goto	l2033
  6417     038E  3A01               	xorlw	1	; case 1
  6418     038F  1903               	skipnz
  6419     0390  2B68               	goto	l2037
  6420     0391  3A03               	xorlw	3	; case 2
  6421     0392  1903               	skipnz
  6422     0393  2B75               	goto	l2041
  6423     0394  2B55               	goto	l2025
  6424     0395                     l247:
  6425     0395  0008               	return
  6426     0396                     __end_of_LIN_getFromTable:
  6427                           
  6428                           	psect	text48
  6429     023B                     __ptext48:	
  6430 ;; *************** function _LIN_calcParity *****************
  6431 ;; Defined at:
  6432 ;;		line 279 in file "mcc_generated_files/LINDrivers/lin_slave.c"
  6433 ;; Parameters:    Size  Location     Type
  6434 ;;  CMD             1    wreg     unsigned char 
  6435 ;; Auto vars:     Size  Location     Type
  6436 ;;  CMD             1    2[COMMON] unsigned char 
  6437 ;;  PID             1    3[COMMON] struct .
  6438 ;; Return value:  Size  Location     Type
  6439 ;;                  1    wreg      unsigned char 
  6440 ;; Registers used:
  6441 ;;		wreg, status,0
  6442 ;; Tracked objects:
  6443 ;;		On entry : 0/0
  6444 ;;		On exit  : 0/0
  6445 ;;		Unchanged: 0/0
  6446 ;; Data sizes:     COMMON   BANK0   BANK1   BANK2   BANK3   BANK4   BANK5   BANK6
  6447 ;;      Params:         0       0       0       0       0       0       0       0
  6448 ;;      Locals:         2       0       0       0       0       0       0       0
  6449 ;;      Temps:          1       0       0       0       0       0       0       0
  6450 ;;      Totals:         3       0       0       0       0       0       0       0
  6451 ;;Total ram usage:        3 bytes
  6452 ;; Hardware stack levels used: 1
  6453 ;; Hardware stack levels required when called: 4
  6454 ;; This function calls:
  6455 ;;		Nothing
  6456 ;; This function is called by:
  6457 ;;		_LIN_checkPID
  6458 ;; This function uses a non-reentrant model
  6459 ;;
  6460                           
  6461     023B                     _LIN_calcParity:	
  6462                           ;psect for function _LIN_calcParity
  6463                           
  6464                           
  6465                           ;incstack = 0
  6466                           ; Regs used in _LIN_calcParity: [wreg+status,0]
  6467                           ;LIN_calcParity@CMD stored from wreg
  6468     023B  00F2               	movwf	LIN_calcParity@CMD
  6469     023C                     l2061:
  6470                           
  6471                           ;mcc_generated_files/LINDrivers/lin_slave.c: 280:   lin_pid_t PID;;mcc_generated_files/L
      +                          INDrivers/lin_slave.c: 281:   PID.rawPID = CMD;
  6472     023C  0872               	movf	LIN_calcParity@CMD,w
  6473     023D  00F3               	movwf	LIN_calcParity@PID
  6474                           
  6475                           ;mcc_generated_files/LINDrivers/lin_slave.c: 286:   PID.P0 = PID.ID0 ^ PID.ID1;
  6476     023E  18F3               	btfsc	LIN_calcParity@PID,1
  6477     023F  2A41               	goto	u1161
  6478     0240  2A43               	goto	u1160
  6479     0241                     u1161:
  6480     0241  3001               	movlw	1
  6481     0242  2A44               	goto	u1162
  6482     0243                     u1160:
  6483     0243  3000               	movlw	0
  6484     0244                     u1162:
  6485     0244  00F1               	movwf	??_LIN_calcParity
  6486     0245  1873               	btfsc	LIN_calcParity@PID,0
  6487     0246  2A48               	goto	u1171
  6488     0247  2A4A               	goto	u1170
  6489     0248                     u1171:
  6490     0248  3001               	movlw	1
  6491     0249  2A4B               	goto	u1172
  6492     024A                     u1170:
  6493     024A  3000               	movlw	0
  6494     024B                     u1172:
  6495     024B  0671               	xorwf	??_LIN_calcParity,w
  6496     024C  1D03               	skipz
  6497     024D  2A4F               	goto	u1181
  6498     024E  2A51               	goto	u1180
  6499     024F                     u1181:
  6500     024F  1773               	bsf	LIN_calcParity@PID,6
  6501     0250  2A52               	goto	u1194
  6502     0251                     u1180:
  6503     0251  1373               	bcf	LIN_calcParity@PID,6
  6504     0252                     u1194:
  6505                           
  6506                           ;mcc_generated_files/LINDrivers/lin_slave.c: 287:   PID.P0 = PID.P0 ^ PID.ID2;
  6507     0252  1973               	btfsc	LIN_calcParity@PID,2
  6508     0253  2A55               	goto	u1201
  6509     0254  2A57               	goto	u1200
  6510     0255                     u1201:
  6511     0255  3001               	movlw	1
  6512     0256  2A58               	goto	u1202
  6513     0257                     u1200:
  6514     0257  3000               	movlw	0
  6515     0258                     u1202:
  6516     0258  00F1               	movwf	??_LIN_calcParity
  6517     0259  1B73               	btfsc	LIN_calcParity@PID,6
  6518     025A  2A5C               	goto	u1211
  6519     025B  2A5E               	goto	u1210
  6520     025C                     u1211:
  6521     025C  3001               	movlw	1
  6522     025D  2A5F               	goto	u1212
  6523     025E                     u1210:
  6524     025E  3000               	movlw	0
  6525     025F                     u1212:
  6526     025F  0671               	xorwf	??_LIN_calcParity,w
  6527     0260  1D03               	skipz
  6528     0261  2A63               	goto	u1221
  6529     0262  2A65               	goto	u1220
  6530     0263                     u1221:
  6531     0263  1773               	bsf	LIN_calcParity@PID,6
  6532     0264  2A66               	goto	u1234
  6533     0265                     u1220:
  6534     0265  1373               	bcf	LIN_calcParity@PID,6
  6535     0266                     u1234:
  6536                           
  6537                           ;mcc_generated_files/LINDrivers/lin_slave.c: 288:   PID.P0 = PID.P0 ^ PID.ID4;
  6538     0266  1A73               	btfsc	LIN_calcParity@PID,4
  6539     0267  2A69               	goto	u1241
  6540     0268  2A6B               	goto	u1240
  6541     0269                     u1241:
  6542     0269  3001               	movlw	1
  6543     026A  2A6C               	goto	u1242
  6544     026B                     u1240:
  6545     026B  3000               	movlw	0
  6546     026C                     u1242:
  6547     026C  00F1               	movwf	??_LIN_calcParity
  6548     026D  1B73               	btfsc	LIN_calcParity@PID,6
  6549     026E  2A70               	goto	u1251
  6550     026F  2A72               	goto	u1250
  6551     0270                     u1251:
  6552     0270  3001               	movlw	1
  6553     0271  2A73               	goto	u1252
  6554     0272                     u1250:
  6555     0272  3000               	movlw	0
  6556     0273                     u1252:
  6557     0273  0671               	xorwf	??_LIN_calcParity,w
  6558     0274  1D03               	skipz
  6559     0275  2A77               	goto	u1261
  6560     0276  2A79               	goto	u1260
  6561     0277                     u1261:
  6562     0277  1773               	bsf	LIN_calcParity@PID,6
  6563     0278  2A7A               	goto	u1274
  6564     0279                     u1260:
  6565     0279  1373               	bcf	LIN_calcParity@PID,6
  6566     027A                     u1274:
  6567                           
  6568                           ;mcc_generated_files/LINDrivers/lin_slave.c: 289:   PID.P1 = PID.ID1 ^ PID.ID3;
  6569     027A  19F3               	btfsc	LIN_calcParity@PID,3
  6570     027B  2A7D               	goto	u1281
  6571     027C  2A7F               	goto	u1280
  6572     027D                     u1281:
  6573     027D  3001               	movlw	1
  6574     027E  2A80               	goto	u1282
  6575     027F                     u1280:
  6576     027F  3000               	movlw	0
  6577     0280                     u1282:
  6578     0280  00F1               	movwf	??_LIN_calcParity
  6579     0281  18F3               	btfsc	LIN_calcParity@PID,1
  6580     0282  2A84               	goto	u1291
  6581     0283  2A86               	goto	u1290
  6582     0284                     u1291:
  6583     0284  3001               	movlw	1
  6584     0285  2A87               	goto	u1292
  6585     0286                     u1290:
  6586     0286  3000               	movlw	0
  6587     0287                     u1292:
  6588     0287  0671               	xorwf	??_LIN_calcParity,w
  6589     0288  1D03               	skipz
  6590     0289  2A8B               	goto	u1301
  6591     028A  2A8D               	goto	u1300
  6592     028B                     u1301:
  6593     028B  17F3               	bsf	LIN_calcParity@PID,7
  6594     028C  2A8E               	goto	u1314
  6595     028D                     u1300:
  6596     028D  13F3               	bcf	LIN_calcParity@PID,7
  6597     028E                     u1314:
  6598                           
  6599                           ;mcc_generated_files/LINDrivers/lin_slave.c: 290:   PID.P1 = PID.P1 ^ PID.ID4;
  6600     028E  1A73               	btfsc	LIN_calcParity@PID,4
  6601     028F  2A91               	goto	u1321
  6602     0290  2A93               	goto	u1320
  6603     0291                     u1321:
  6604     0291  3001               	movlw	1
  6605     0292  2A94               	goto	u1322
  6606     0293                     u1320:
  6607     0293  3000               	movlw	0
  6608     0294                     u1322:
  6609     0294  00F1               	movwf	??_LIN_calcParity
  6610     0295  1BF3               	btfsc	LIN_calcParity@PID,7
  6611     0296  2A98               	goto	u1331
  6612     0297  2A9A               	goto	u1330
  6613     0298                     u1331:
  6614     0298  3001               	movlw	1
  6615     0299  2A9B               	goto	u1332
  6616     029A                     u1330:
  6617     029A  3000               	movlw	0
  6618     029B                     u1332:
  6619     029B  0671               	xorwf	??_LIN_calcParity,w
  6620     029C  1D03               	skipz
  6621     029D  2A9F               	goto	u1341
  6622     029E  2AA1               	goto	u1340
  6623     029F                     u1341:
  6624     029F  17F3               	bsf	LIN_calcParity@PID,7
  6625     02A0  2AA2               	goto	u1354
  6626     02A1                     u1340:
  6627     02A1  13F3               	bcf	LIN_calcParity@PID,7
  6628     02A2                     u1354:
  6629                           
  6630                           ;mcc_generated_files/LINDrivers/lin_slave.c: 291:   PID.P1 = PID.P1 ^ PID.ID5;
  6631     02A2  1AF3               	btfsc	LIN_calcParity@PID,5
  6632     02A3  2AA5               	goto	u1361
  6633     02A4  2AA7               	goto	u1360
  6634     02A5                     u1361:
  6635     02A5  3001               	movlw	1
  6636     02A6  2AA8               	goto	u1362
  6637     02A7                     u1360:
  6638     02A7  3000               	movlw	0
  6639     02A8                     u1362:
  6640     02A8  00F1               	movwf	??_LIN_calcParity
  6641     02A9  1BF3               	btfsc	LIN_calcParity@PID,7
  6642     02AA  2AAC               	goto	u1371
  6643     02AB  2AAE               	goto	u1370
  6644     02AC                     u1371:
  6645     02AC  3001               	movlw	1
  6646     02AD  2AAF               	goto	u1372
  6647     02AE                     u1370:
  6648     02AE  3000               	movlw	0
  6649     02AF                     u1372:
  6650     02AF  0671               	xorwf	??_LIN_calcParity,w
  6651     02B0  1D03               	skipz
  6652     02B1  2AB3               	goto	u1381
  6653     02B2  2AB5               	goto	u1380
  6654     02B3                     u1381:
  6655     02B3  17F3               	bsf	LIN_calcParity@PID,7
  6656     02B4  2AB6               	goto	u1394
  6657     02B5                     u1380:
  6658     02B5  13F3               	bcf	LIN_calcParity@PID,7
  6659     02B6                     u1394:
  6660     02B6                     l2063:
  6661                           
  6662                           ;mcc_generated_files/LINDrivers/lin_slave.c: 292:   PID.P1 = ~PID.P1;
  6663     02B6  1003               	clrc
  6664     02B7  1FF3               	btfss	LIN_calcParity@PID,7
  6665     02B8  1403               	setc
  6666     02B9  1803               	btfsc	3,0
  6667     02BA  2ABC               	goto	u1401
  6668     02BB  2ABE               	goto	u1400
  6669     02BC                     u1401:
  6670     02BC  17F3               	bsf	LIN_calcParity@PID,7
  6671     02BD  2ABF               	goto	u1414
  6672     02BE                     u1400:
  6673     02BE  13F3               	bcf	LIN_calcParity@PID,7
  6674     02BF                     u1414:
  6675     02BF                     l2065:
  6676                           
  6677                           ;mcc_generated_files/LINDrivers/lin_slave.c: 294:   return PID.rawPID;
  6678     02BF  0873               	movf	LIN_calcParity@PID,w
  6679     02C0                     l261:
  6680     02C0  0008               	return
  6681     02C1                     __end_of_LIN_calcParity:
  6682                           
  6683                           	psect	text49
  6684     05C6                     __ptext49:	
  6685 ;; *************** function _LIN_breakCheck *****************
  6686 ;; Defined at:
  6687 ;;		line 352 in file "mcc_generated_files/LINDrivers/lin_slave.c"
  6688 ;; Parameters:    Size  Location     Type
  6689 ;;		None
  6690 ;; Auto vars:     Size  Location     Type
  6691 ;;		None
  6692 ;; Return value:  Size  Location     Type
  6693 ;;                  1    wreg      _Bool 
  6694 ;; Registers used:
  6695 ;;		wreg, fsr1l, fsr1h, status,2, status,0, pclath, cstack
  6696 ;; Tracked objects:
  6697 ;;		On entry : 0/0
  6698 ;;		On exit  : 0/0
  6699 ;;		Unchanged: 0/0
  6700 ;; Data sizes:     COMMON   BANK0   BANK1   BANK2   BANK3   BANK4   BANK5   BANK6
  6701 ;;      Params:         0       0       0       0       0       0       0       0
  6702 ;;      Locals:         0       0       0       0       0       0       0       0
  6703 ;;      Temps:          0       0       0       0       0       0       0       0
  6704 ;;      Totals:         0       0       0       0       0       0       0       0
  6705 ;;Total ram usage:        0 bytes
  6706 ;; Hardware stack levels used: 1
  6707 ;; Hardware stack levels required when called: 5
  6708 ;; This function calls:
  6709 ;;		_EUSART_Read
  6710 ;;		_EUSART_get_last_status
  6711 ;; This function is called by:
  6712 ;;		_LIN_handler
  6713 ;; This function uses a non-reentrant model
  6714 ;;
  6715                           
  6716     05C6                     _LIN_breakCheck:	
  6717                           ;psect for function _LIN_breakCheck
  6718                           
  6719     05C6                     l2243:	
  6720                           ;incstack = 0
  6721                           ; Regs used in _LIN_breakCheck: [wreg+fsr1l+fsr1h+status,2+status,0+pclath+cstack]
  6722                           
  6723                           
  6724                           ;mcc_generated_files/LINDrivers/lin_slave.c: 354:   if ((EUSART_Read() == 0x00) && (EUSA
      +                          RT_get_last_status().ferr == 1)) {
  6725     05C6  3184  246E  3185   	fcall	_EUSART_Read
  6726     05C9  3A00               	xorlw	0
  6727     05CA  1D03               	skipz
  6728     05CB  2DCD               	goto	u1681
  6729     05CC  2DCE               	goto	u1680
  6730     05CD                     u1681:
  6731     05CD  2DD7               	goto	l2251
  6732     05CE                     u1680:
  6733     05CE                     l2245:
  6734     05CE  3186  26CD  3185   	fcall	_EUSART_get_last_status
  6735     05D1  1C89               	btfss	9,1
  6736     05D2  2DD4               	goto	u1691
  6737     05D3  2DD5               	goto	u1690
  6738     05D4                     u1691:
  6739     05D4  2DD7               	goto	l2251
  6740     05D5                     u1690:
  6741     05D5                     l2247:
  6742                           
  6743                           ;mcc_generated_files/LINDrivers/lin_slave.c: 355:     return 1;
  6744     05D5  3001               	movlw	1
  6745     05D6  2DD8               	goto	l291
  6746     05D7                     l2251:
  6747                           
  6748                           ;mcc_generated_files/LINDrivers/lin_slave.c: 358:   return 0;
  6749     05D7  3000               	movlw	0
  6750     05D8                     l291:
  6751     05D8  0008               	return
  6752     05D9                     __end_of_LIN_breakCheck:
  6753                           
  6754                           	psect	text50
  6755     06CD                     __ptext50:	
  6756 ;; *************** function _EUSART_get_last_status *****************
  6757 ;; Defined at:
  6758 ;;		line 162 in file "mcc_generated_files/eusart.c"
  6759 ;; Parameters:    Size  Location     Type
  6760 ;;		None
  6761 ;; Auto vars:     Size  Location     Type
  6762 ;;		None
  6763 ;; Return value:  Size  Location     Type
  6764 ;;                  1    wreg      struct .
  6765 ;; Registers used:
  6766 ;;		wreg
  6767 ;; Tracked objects:
  6768 ;;		On entry : 0/0
  6769 ;;		On exit  : 0/0
  6770 ;;		Unchanged: 0/0
  6771 ;; Data sizes:     COMMON   BANK0   BANK1   BANK2   BANK3   BANK4   BANK5   BANK6
  6772 ;;      Params:         0       0       0       0       0       0       0       0
  6773 ;;      Locals:         0       0       0       0       0       0       0       0
  6774 ;;      Temps:          0       0       0       0       0       0       0       0
  6775 ;;      Totals:         0       0       0       0       0       0       0       0
  6776 ;;Total ram usage:        0 bytes
  6777 ;; Hardware stack levels used: 1
  6778 ;; Hardware stack levels required when called: 4
  6779 ;; This function calls:
  6780 ;;		Nothing
  6781 ;; This function is called by:
  6782 ;;		_LIN_breakCheck
  6783 ;; This function uses a non-reentrant model
  6784 ;;
  6785                           
  6786     06CD                     _EUSART_get_last_status:	
  6787                           ;psect for function _EUSART_get_last_status
  6788                           
  6789     06CD                     l2071:	
  6790                           ;incstack = 0
  6791                           ; Regs used in _EUSART_get_last_status: [wreg]
  6792                           
  6793                           
  6794                           ;mcc_generated_files/eusart.c: 163:     return eusartRxLastError;
  6795     06CD  0020               	movlb	0	; select bank0
  6796     06CE  0841               	movf	_eusartRxLastError,w	;volatile
  6797     06CF                     l413:
  6798     06CF  0008               	return
  6799     06D0                     __end_of_EUSART_get_last_status:
  6800                           
  6801                           	psect	text51
  6802     046E                     __ptext51:	
  6803 ;; *************** function _EUSART_Read *****************
  6804 ;; Defined at:
  6805 ;;		line 167 in file "mcc_generated_files/eusart.c"
  6806 ;; Parameters:    Size  Location     Type
  6807 ;;		None
  6808 ;; Auto vars:     Size  Location     Type
  6809 ;;  readValue       1    2[COMMON] unsigned char 
  6810 ;; Return value:  Size  Location     Type
  6811 ;;                  1    wreg      unsigned char 
  6812 ;; Registers used:
  6813 ;;		wreg, fsr1l, fsr1h, status,2, status,0
  6814 ;; Tracked objects:
  6815 ;;		On entry : 0/0
  6816 ;;		On exit  : 0/0
  6817 ;;		Unchanged: 0/0
  6818 ;; Data sizes:     COMMON   BANK0   BANK1   BANK2   BANK3   BANK4   BANK5   BANK6
  6819 ;;      Params:         0       0       0       0       0       0       0       0
  6820 ;;      Locals:         1       0       0       0       0       0       0       0
  6821 ;;      Temps:          1       0       0       0       0       0       0       0
  6822 ;;      Totals:         2       0       0       0       0       0       0       0
  6823 ;;Total ram usage:        2 bytes
  6824 ;; Hardware stack levels used: 1
  6825 ;; Hardware stack levels required when called: 4
  6826 ;; This function calls:
  6827 ;;		Nothing
  6828 ;; This function is called by:
  6829 ;;		_LIN_handler
  6830 ;;		_LIN_breakCheck
  6831 ;; This function uses a non-reentrant model
  6832 ;;
  6833                           
  6834     046E                     _EUSART_Read:	
  6835                           ;psect for function _EUSART_Read
  6836                           
  6837     046E                     l1991:	
  6838                           ;incstack = 0
  6839                           ; Regs used in _EUSART_Read: [wreg+fsr1l+fsr1h+status,2+status,0]
  6840                           
  6841     046E                     l1993:	
  6842                           ;mcc_generated_files/eusart.c: 171:     while(0 == eusartRxCount)
  6843                           
  6844                           
  6845                           ;mcc_generated_files/eusart.c: 171:     while(0 == eusartRxCount)
  6846     046E  0020               	movlb	0	; select bank0
  6847     046F  0842               	movf	_eusartRxCount,w	;volatile
  6848     0470  1903               	btfsc	3,2
  6849     0471  2C73               	goto	u1111
  6850     0472  2C74               	goto	u1110
  6851     0473                     u1111:
  6852     0473  2C6E               	goto	l1993
  6853     0474                     u1110:
  6854     0474                     l1995:
  6855                           
  6856                           ;mcc_generated_files/eusart.c: 175:     eusartRxLastError = eusartRxStatusBuffer[eusartR
      +                          xTail];
  6857     0474  087B               	movf	_eusartRxTail,w	;volatile
  6858     0475  3E20               	addlw	(low (_eusartRxStatusBuffer| 0))& (0+255)
  6859     0476  0086               	movwf	6
  6860     0477  0187               	clrf	7
  6861     0478  0801               	movf	1,w
  6862     0479  00C1               	movwf	_eusartRxLastError	;volatile
  6863                           
  6864                           ;mcc_generated_files/eusart.c: 177:     readValue = eusartRxBuffer[eusartRxTail++];
  6865     047A  087B               	movf	_eusartRxTail,w
  6866     047B  3EA0               	addlw	(low (_eusartRxBuffer| 0))& (0+255)
  6867     047C  0086               	movwf	6
  6868     047D  0187               	clrf	7
  6869     047E  0801               	movf	1,w
  6870     047F  00F2               	movwf	EUSART_Read@readValue
  6871     0480                     l1997:
  6872     0480  3001               	movlw	1
  6873     0481  00F1               	movwf	??_EUSART_Read
  6874     0482  0871               	movf	??_EUSART_Read,w
  6875     0483  07FB               	addwf	_eusartRxTail,f	;volatile
  6876     0484                     l1999:
  6877                           
  6878                           ;mcc_generated_files/eusart.c: 179:     if(sizeof(eusartRxBuffer) <= eusartRxTail)
  6879     0484  3008               	movlw	8
  6880     0485  027B               	subwf	_eusartRxTail,w	;volatile
  6881     0486  1C03               	skipc
  6882     0487  2C89               	goto	u1121
  6883     0488  2C8A               	goto	u1120
  6884     0489                     u1121:
  6885     0489  2C8B               	goto	l2003
  6886     048A                     u1120:
  6887     048A                     l2001:
  6888                           
  6889                           ;mcc_generated_files/eusart.c: 180:     {;mcc_generated_files/eusart.c: 181:         eus
      +                          artRxTail = 0;
  6890     048A  01FB               	clrf	_eusartRxTail	;volatile
  6891     048B                     l2003:
  6892                           
  6893                           ;mcc_generated_files/eusart.c: 184:     PIE1bits.RCIE = 0;
  6894     048B  0021               	movlb	1	; select bank1
  6895     048C  1291               	bcf	17,5	;volatile
  6896     048D                     l2005:
  6897                           
  6898                           ;mcc_generated_files/eusart.c: 185:     eusartRxCount--;
  6899     048D  3001               	movlw	1
  6900     048E  0020               	movlb	0	; select bank0
  6901     048F  02C2               	subwf	_eusartRxCount,f	;volatile
  6902     0490                     l2007:
  6903                           
  6904                           ;mcc_generated_files/eusart.c: 186:     PIE1bits.RCIE = 1;
  6905     0490  0021               	movlb	1	; select bank1
  6906     0491  1691               	bsf	17,5	;volatile
  6907     0492                     l2009:
  6908                           
  6909                           ;mcc_generated_files/eusart.c: 188:     return readValue;
  6910     0492  0872               	movf	EUSART_Read@readValue,w
  6911     0493                     l420:
  6912     0493  0008               	return
  6913     0494                     __end_of_EUSART_Read:
  6914                           
  6915                           	psect	text52
  6916     063C                     __ptext52:	
  6917 ;; *************** function _EUSART_is_rx_ready *****************
  6918 ;; Defined at:
  6919 ;;		line 151 in file "mcc_generated_files/eusart.c"
  6920 ;; Parameters:    Size  Location     Type
  6921 ;;		None
  6922 ;; Auto vars:     Size  Location     Type
  6923 ;;		None
  6924 ;; Return value:  Size  Location     Type
  6925 ;;                  1    wreg      _Bool 
  6926 ;; Registers used:
  6927 ;;		wreg, status,2, status,0
  6928 ;; Tracked objects:
  6929 ;;		On entry : 0/0
  6930 ;;		On exit  : 0/0
  6931 ;;		Unchanged: 0/0
  6932 ;; Data sizes:     COMMON   BANK0   BANK1   BANK2   BANK3   BANK4   BANK5   BANK6
  6933 ;;      Params:         0       0       0       0       0       0       0       0
  6934 ;;      Locals:         0       0       0       0       0       0       0       0
  6935 ;;      Temps:          0       0       0       0       0       0       0       0
  6936 ;;      Totals:         0       0       0       0       0       0       0       0
  6937 ;;Total ram usage:        0 bytes
  6938 ;; Hardware stack levels used: 1
  6939 ;; Hardware stack levels required when called: 4
  6940 ;; This function calls:
  6941 ;;		Nothing
  6942 ;; This function is called by:
  6943 ;;		_LIN_handler
  6944 ;; This function uses a non-reentrant model
  6945 ;;
  6946                           
  6947     063C                     _EUSART_is_rx_ready:	
  6948                           ;psect for function _EUSART_is_rx_ready
  6949                           
  6950     063C                     l2233:	
  6951                           ;incstack = 0
  6952                           ; Regs used in _EUSART_is_rx_ready: [wreg+status,2+status,0]
  6953                           
  6954                           
  6955                           ;mcc_generated_files/eusart.c: 153:     return (eusartRxCount ? 1 : 0);
  6956     063C  0020               	movlb	0	; select bank0
  6957     063D  0842               	movf	_eusartRxCount,w	;volatile
  6958     063E  1D03               	btfss	3,2
  6959     063F  2E41               	goto	u1661
  6960     0640  2E43               	goto	u1660
  6961     0641                     u1661:
  6962     0641  3001               	movlw	1
  6963     0642  2E44               	goto	u1670
  6964     0643                     u1660:
  6965     0643  3000               	movlw	0
  6966     0644                     u1670:
  6967     0644                     l407:
  6968     0644  0008               	return
  6969     0645                     __end_of_EUSART_is_rx_ready:
  6970                           
  6971                           	psect	text53
  6972     05D9                     __ptext53:	
  6973 ;; *************** function _AutoBaud_Detect *****************
  6974 ;; Defined at:
  6975 ;;		line 139 in file "main.c"
  6976 ;; Parameters:    Size  Location     Type
  6977 ;;		None
  6978 ;; Auto vars:     Size  Location     Type
  6979 ;;		None
  6980 ;; Return value:  Size  Location     Type
  6981 ;;                  1    wreg      void 
  6982 ;; Registers used:
  6983 ;;		status,2, status,0, pclath, cstack
  6984 ;; Tracked objects:
  6985 ;;		On entry : 0/0
  6986 ;;		On exit  : 0/0
  6987 ;;		Unchanged: 0/0
  6988 ;; Data sizes:     COMMON   BANK0   BANK1   BANK2   BANK3   BANK4   BANK5   BANK6
  6989 ;;      Params:         0       0       0       0       0       0       0       0
  6990 ;;      Locals:         0       0       0       0       0       0       0       0
  6991 ;;      Temps:          0       0       0       0       0       0       0       0
  6992 ;;      Totals:         0       0       0       0       0       0       0       0
  6993 ;;Total ram usage:        0 bytes
  6994 ;; Hardware stack levels used: 1
  6995 ;; Hardware stack levels required when called: 5
  6996 ;; This function calls:
  6997 ;;		_AutoBaud_Detect_ON
  6998 ;; This function is called by:
  6999 ;;		_main
  7000 ;; This function uses a non-reentrant model
  7001 ;;
  7002                           
  7003     05D9                     _AutoBaud_Detect:	
  7004                           ;psect for function _AutoBaud_Detect
  7005                           
  7006     05D9                     l595:	
  7007                           ;incstack = 0
  7008                           ; Regs used in _AutoBaud_Detect: [status,2+status,0+pclath+cstack]
  7009                           ;main.c: 140:   while (1) {
  7010                           
  7011     05D9                     l1829:
  7012                           
  7013                           ;main.c: 141:     AutoBaud_Detect_ON();
  7014     05D9  3186  2686  3185   	fcall	_AutoBaud_Detect_ON
  7015                           
  7016                           ;main.c: 142:     while (!BAUDCONbits.ABDOVF)
  7017     05DC  2DE2               	goto	l596
  7018     05DD                     l597:
  7019                           
  7020                           ;main.c: 143:     {;main.c: 144:       if (!BAUDCONbits.ABDEN)
  7021     05DD  181F               	btfsc	31,0	;volatile
  7022     05DE  2DE0               	goto	u931
  7023     05DF  2DE1               	goto	u930
  7024     05E0                     u931:
  7025     05E0  2DE2               	goto	l596
  7026     05E1                     u930:
  7027     05E1  2DE7               	goto	l599
  7028     05E2                     l596:	
  7029                           ;main.c: 148:     }
  7030                           
  7031                           
  7032                           ;main.c: 142:     while (!BAUDCONbits.ABDOVF)
  7033     05E2  0023               	movlb	3	; select bank3
  7034     05E3  1F9F               	btfss	31,7	;volatile
  7035     05E4  2DE6               	goto	u941
  7036     05E5  2DE7               	goto	u940
  7037     05E6                     u941:
  7038     05E6  2DDD               	goto	l597
  7039     05E7                     u940:
  7040     05E7                     l599:
  7041                           
  7042                           ;main.c: 151:     if (!BAUDCONbits.ABDOVF)
  7043     05E7  1B9F               	btfsc	31,7	;volatile
  7044     05E8  2DEA               	goto	u951
  7045     05E9  2DEB               	goto	u950
  7046     05EA                     u951:
  7047     05EA  2DD9               	goto	l595
  7048     05EB                     u950:
  7049     05EB                     l603:
  7050     05EB  0008               	return
  7051     05EC                     __end_of_AutoBaud_Detect:
  7052                           
  7053                           	psect	text54
  7054     0686                     __ptext54:	
  7055 ;; *************** function _AutoBaud_Detect_ON *****************
  7056 ;; Defined at:
  7057 ;;		line 132 in file "main.c"
  7058 ;; Parameters:    Size  Location     Type
  7059 ;;		None
  7060 ;; Auto vars:     Size  Location     Type
  7061 ;;		None
  7062 ;; Return value:  Size  Location     Type
  7063 ;;                  1    wreg      void 
  7064 ;; Registers used:
  7065 ;;		None
  7066 ;; Tracked objects:
  7067 ;;		On entry : 0/0
  7068 ;;		On exit  : 0/0
  7069 ;;		Unchanged: 0/0
  7070 ;; Data sizes:     COMMON   BANK0   BANK1   BANK2   BANK3   BANK4   BANK5   BANK6
  7071 ;;      Params:         0       0       0       0       0       0       0       0
  7072 ;;      Locals:         0       0       0       0       0       0       0       0
  7073 ;;      Temps:          0       0       0       0       0       0       0       0
  7074 ;;      Totals:         0       0       0       0       0       0       0       0
  7075 ;;Total ram usage:        0 bytes
  7076 ;; Hardware stack levels used: 1
  7077 ;; Hardware stack levels required when called: 4
  7078 ;; This function calls:
  7079 ;;		Nothing
  7080 ;; This function is called by:
  7081 ;;		_AutoBaud_Detect
  7082 ;; This function uses a non-reentrant model
  7083 ;;
  7084                           
  7085     0686                     _AutoBaud_Detect_ON:	
  7086                           ;psect for function _AutoBaud_Detect_ON
  7087                           
  7088     0686                     l1687:	
  7089                           ;incstack = 0
  7090                           ; Regs used in _AutoBaud_Detect_ON: []
  7091                           
  7092                           
  7093                           ;main.c: 133:   BAUDCONbits.ABDOVF = 0;
  7094     0686  0023               	movlb	3	; select bank3
  7095     0687  139F               	bcf	31,7	;volatile
  7096                           
  7097                           ;main.c: 134:   BAUDCONbits.ABDEN = 1;
  7098     0688  141F               	bsf	31,0	;volatile
  7099                           
  7100                           ;main.c: 135:   BAUDCONbits.WUE = 1;
  7101     0689  149F               	bsf	31,1	;volatile
  7102     068A                     l592:
  7103     068A  0008               	return
  7104     068B                     __end_of_AutoBaud_Detect_ON:
  7105                           
  7106                           	psect	intentry
  7107     0004                     __pintentry:	
  7108 ;; *************** function _INTERRUPT_InterruptManager *****************
  7109 ;; Defined at:
  7110 ;;		line 52 in file "mcc_generated_files/interrupt_manager.c"
  7111 ;; Parameters:    Size  Location     Type
  7112 ;;		None
  7113 ;; Auto vars:     Size  Location     Type
  7114 ;;		None
  7115 ;; Return value:  Size  Location     Type
  7116 ;;                  1    wreg      void 
  7117 ;; Registers used:
  7118 ;;		wreg, fsr1l, fsr1h, status,2, status,0, pclath, cstack
  7119 ;; Tracked objects:
  7120 ;;		On entry : 0/0
  7121 ;;		On exit  : 0/0
  7122 ;;		Unchanged: 0/0
  7123 ;; Data sizes:     COMMON   BANK0   BANK1   BANK2   BANK3   BANK4   BANK5   BANK6
  7124 ;;      Params:         0       0       0       0       0       0       0       0
  7125 ;;      Locals:         0       0       0       0       0       0       0       0
  7126 ;;      Temps:          0       0       0       0       0       0       0       0
  7127 ;;      Totals:         0       0       0       0       0       0       0       0
  7128 ;;Total ram usage:        0 bytes
  7129 ;; Hardware stack levels used: 1
  7130 ;; Hardware stack levels required when called: 3
  7131 ;; This function calls:
  7132 ;;		NULL
  7133 ;;		_EUSART_Receive_ISR
  7134 ;;		_EUSART_Transmit_ISR
  7135 ;;		_TMR0_ISR
  7136 ;; This function is called by:
  7137 ;;		Interrupt level 1
  7138 ;; This function uses a non-reentrant model
  7139 ;;
  7140                           
  7141     0004                     _INTERRUPT_InterruptManager:
  7142                           
  7143                           ;incstack = 0
  7144     0004  147E               	bsf	int$flags,0	;set compiler interrupt flag (level 1)
  7145                           
  7146                           ; Regs used in _INTERRUPT_InterruptManager: [wreg+fsr1l+fsr1h+status,2+status,0+pclath+c
      +                          stack]
  7147     0005  3180               	pagesel	$
  7148     0006                     i1l2473:
  7149                           
  7150                           ;mcc_generated_files/interrupt_manager.c: 55:     if(INTCONbits.TMR0IE == 1 && INTCONbit
      +                          s.TMR0IF == 1)
  7151     0006  1E8B               	btfss	11,5	;volatile
  7152     0007  2809               	goto	u194_21
  7153     0008  280A               	goto	u194_20
  7154     0009                     u194_21:
  7155     0009  2812               	goto	i1l531
  7156     000A                     u194_20:
  7157     000A                     i1l2475:
  7158     000A  1D0B               	btfss	11,2	;volatile
  7159     000B  280D               	goto	u195_21
  7160     000C  280E               	goto	u195_20
  7161     000D                     u195_21:
  7162     000D  2812               	goto	i1l531
  7163     000E                     u195_20:
  7164     000E                     i1l2477:
  7165                           
  7166                           ;mcc_generated_files/interrupt_manager.c: 56:     {;mcc_generated_files/interrupt_manage
      +                          r.c: 57:         TMR0_ISR();
  7167     000E  3185  25EC  3180   	fcall	_TMR0_ISR
  7168                           
  7169                           ;mcc_generated_files/interrupt_manager.c: 58:     }
  7170     0011  2836               	goto	i1l539
  7171     0012                     i1l531:	
  7172                           ;mcc_generated_files/interrupt_manager.c: 59:     else if(INTCONbits.PEIE == 1)
  7173                           
  7174     0012  1F0B               	btfss	11,6	;volatile
  7175     0013  2815               	goto	u196_21
  7176     0014  2816               	goto	u196_20
  7177     0015                     u196_21:
  7178     0015  2836               	goto	i1l539
  7179     0016                     u196_20:
  7180     0016                     i1l2479:
  7181                           
  7182                           ;mcc_generated_files/interrupt_manager.c: 60:     {;mcc_generated_files/interrupt_manage
      +                          r.c: 61:         if(PIE1bits.TXIE == 1 && PIR1bits.TXIF == 1)
  7183     0016  0021               	movlb	1	; select bank1
  7184     0017  1E11               	btfss	17,4	;volatile
  7185     0018  281A               	goto	u197_21
  7186     0019  281B               	goto	u197_20
  7187     001A                     u197_21:
  7188     001A  2826               	goto	i1l534
  7189     001B                     u197_20:
  7190     001B                     i1l2481:
  7191     001B  0020               	movlb	0	; select bank0
  7192     001C  1E11               	btfss	17,4	;volatile
  7193     001D  281F               	goto	u198_21
  7194     001E  2820               	goto	u198_20
  7195     001F                     u198_21:
  7196     001F  2826               	goto	i1l534
  7197     0020                     u198_20:
  7198     0020                     i1l2483:
  7199                           
  7200                           ;mcc_generated_files/interrupt_manager.c: 62:         {;mcc_generated_files/interrupt_ma
      +                          nager.c: 63:             EUSART_TxDefaultInterruptHandler();
  7201     0020  083B               	movf	_EUSART_TxDefaultInterruptHandler+1,w
  7202     0021  008A               	movwf	10
  7203     0022  083A               	movf	_EUSART_TxDefaultInterruptHandler,w
  7204     0023  000A               	callw
  7205     0024  3180               	pagesel	$
  7206                           
  7207                           ;mcc_generated_files/interrupt_manager.c: 64:         }
  7208     0025  2836               	goto	i1l539
  7209     0026                     i1l534:	
  7210                           ;mcc_generated_files/interrupt_manager.c: 65:         else if(PIE1bits.RCIE == 1 && PIR1
      +                          bits.RCIF == 1)
  7211                           
  7212     0026  0021               	movlb	1	; select bank1
  7213     0027  1E91               	btfss	17,5	;volatile
  7214     0028  282A               	goto	u199_21
  7215     0029  282B               	goto	u199_20
  7216     002A                     u199_21:
  7217     002A  2836               	goto	i1l538
  7218     002B                     u199_20:
  7219     002B                     i1l2485:
  7220     002B  0020               	movlb	0	; select bank0
  7221     002C  1E91               	btfss	17,5	;volatile
  7222     002D  282F               	goto	u200_21
  7223     002E  2830               	goto	u200_20
  7224     002F                     u200_21:
  7225     002F  2836               	goto	i1l538
  7226     0030                     u200_20:
  7227     0030                     i1l2487:
  7228                           
  7229                           ;mcc_generated_files/interrupt_manager.c: 66:         {;mcc_generated_files/interrupt_ma
      +                          nager.c: 67:             EUSART_RxDefaultInterruptHandler();
  7230     0030  0839               	movf	_EUSART_RxDefaultInterruptHandler+1,w
  7231     0031  008A               	movwf	10
  7232     0032  0838               	movf	_EUSART_RxDefaultInterruptHandler,w
  7233     0033  000A               	callw
  7234     0034  3180               	pagesel	$
  7235                           
  7236                           ;mcc_generated_files/interrupt_manager.c: 68:         }
  7237     0035  2836               	goto	i1l539
  7238     0036                     i1l538:	
  7239                           ;mcc_generated_files/interrupt_manager.c: 75:     {;mcc_generated_files/interrupt_manage
      +                          r.c: 77:     }
  7240                           
  7241     0036                     i1l539:
  7242     0036  107E               	bcf	int$flags,0	;clear compiler interrupt flag (level 1)
  7243     0037  0009               	retfie
  7244     0038                     __end_of_INTERRUPT_InterruptManager:
  7245                           
  7246                           	psect	text56
  7247     05EC                     __ptext56:	
  7248 ;; *************** function _TMR0_ISR *****************
  7249 ;; Defined at:
  7250 ;;		line 112 in file "mcc_generated_files/tmr0.c"
  7251 ;; Parameters:    Size  Location     Type
  7252 ;;		None
  7253 ;; Auto vars:     Size  Location     Type
  7254 ;;		None
  7255 ;; Return value:  Size  Location     Type
  7256 ;;                  1    wreg      void 
  7257 ;; Registers used:
  7258 ;;		wreg, status,2, status,0, pclath, cstack
  7259 ;; Tracked objects:
  7260 ;;		On entry : 0/0
  7261 ;;		On exit  : 0/0
  7262 ;;		Unchanged: 0/0
  7263 ;; Data sizes:     COMMON   BANK0   BANK1   BANK2   BANK3   BANK4   BANK5   BANK6
  7264 ;;      Params:         0       0       0       0       0       0       0       0
  7265 ;;      Locals:         0       0       0       0       0       0       0       0
  7266 ;;      Temps:          0       0       0       0       0       0       0       0
  7267 ;;      Totals:         0       0       0       0       0       0       0       0
  7268 ;;Total ram usage:        0 bytes
  7269 ;; Hardware stack levels used: 1
  7270 ;; Hardware stack levels required when called: 1
  7271 ;; This function calls:
  7272 ;;		NULL
  7273 ;;		_LIN_timerHandler
  7274 ;;		_TMR0_DefaultInterruptHandler
  7275 ;; This function is called by:
  7276 ;;		_INTERRUPT_InterruptManager
  7277 ;; This function uses a non-reentrant model
  7278 ;;
  7279                           
  7280     05EC                     _TMR0_ISR:	
  7281                           ;psect for function _TMR0_ISR
  7282                           
  7283     05EC                     i1l2463:	
  7284                           ;incstack = 0
  7285                           ; Regs used in _TMR0_ISR: [wreg+status,2+status,0+pclath+cstack]
  7286                           
  7287                           
  7288                           ;mcc_generated_files/tmr0.c: 115:   INTCONbits.TMR0IF = 0;
  7289     05EC  110B               	bcf	11,2	;volatile
  7290     05ED                     i1l2465:
  7291                           
  7292                           ;mcc_generated_files/tmr0.c: 117:   TMR0 = timer0ReloadVal;
  7293     05ED  0020               	movlb	0	; select bank0
  7294     05EE  0840               	movf	_timer0ReloadVal,w	;volatile
  7295     05EF  0095               	movwf	21	;volatile
  7296     05F0                     i1l2467:
  7297                           
  7298                           ;mcc_generated_files/tmr0.c: 119:   if (TMR0_InterruptHandler) {
  7299     05F0  0830               	movf	_TMR0_InterruptHandler,w
  7300     05F1  0431               	iorwf	_TMR0_InterruptHandler+1,w
  7301     05F2  1903               	btfsc	3,2
  7302     05F3  2DF5               	goto	u193_21
  7303     05F4  2DF6               	goto	u193_20
  7304     05F5                     u193_21:
  7305     05F5  2DFB               	goto	i1l504
  7306     05F6                     u193_20:
  7307     05F6                     i1l2469:
  7308                           
  7309                           ;mcc_generated_files/tmr0.c: 120:     TMR0_InterruptHandler();
  7310     05F6  0831               	movf	_TMR0_InterruptHandler+1,w
  7311     05F7  008A               	movwf	10
  7312     05F8  0830               	movf	_TMR0_InterruptHandler,w
  7313     05F9  000A               	callw
  7314     05FA  3185               	pagesel	$
  7315     05FB                     i1l504:
  7316     05FB  0008               	return
  7317     05FC                     __end_of_TMR0_ISR:
  7318                           
  7319                           	psect	text57
  7320     060A                     __ptext57:	
  7321 ;; *************** function _LIN_timerHandler *****************
  7322 ;; Defined at:
  7323 ;;		line 318 in file "mcc_generated_files/LINDrivers/lin_slave.c"
  7324 ;; Parameters:    Size  Location     Type
  7325 ;;		None
  7326 ;; Auto vars:     Size  Location     Type
  7327 ;;		None
  7328 ;; Return value:  Size  Location     Type
  7329 ;;                  1    wreg      void 
  7330 ;; Registers used:
  7331 ;;		wreg, status,2, status,0
  7332 ;; Tracked objects:
  7333 ;;		On entry : 0/0
  7334 ;;		On exit  : 0/0
  7335 ;;		Unchanged: 0/0
  7336 ;; Data sizes:     COMMON   BANK0   BANK1   BANK2   BANK3   BANK4   BANK5   BANK6
  7337 ;;      Params:         0       0       0       0       0       0       0       0
  7338 ;;      Locals:         0       0       0       0       0       0       0       0
  7339 ;;      Temps:          1       0       0       0       0       0       0       0
  7340 ;;      Totals:         1       0       0       0       0       0       0       0
  7341 ;;Total ram usage:        1 bytes
  7342 ;; Hardware stack levels used: 1
  7343 ;; This function calls:
  7344 ;;		Nothing
  7345 ;; This function is called by:
  7346 ;;		_LIN_setTimerHandler
  7347 ;;		_TMR0_ISR
  7348 ;; This function uses a non-reentrant model
  7349 ;;
  7350                           
  7351     060A                     _LIN_timerHandler:	
  7352                           ;psect for function _LIN_timerHandler
  7353                           
  7354     060A                     i1l2273:	
  7355                           ;incstack = 0
  7356                           ; Regs used in _LIN_timerHandler: [wreg+status,2+status,0]
  7357                           
  7358                           
  7359                           ;mcc_generated_files/LINDrivers/lin_slave.c: 321:   if (++CountCallBack >= LIN_timeout) 
      +                          {
  7360     060A  3001               	movlw	1
  7361     060B  00F0               	movwf	??_LIN_timerHandler
  7362     060C  0870               	movf	??_LIN_timerHandler,w
  7363     060D  0020               	movlb	0	; select bank0
  7364     060E  07C8               	addwf	_CountCallBack,f	;volatile
  7365     060F  0869               	movf	_LIN_timeout,w
  7366     0610  0248               	subwf	_CountCallBack,w	;volatile
  7367     0611  1C03               	skipc
  7368     0612  2E14               	goto	u172_21
  7369     0613  2E15               	goto	u172_20
  7370     0614                     u172_21:
  7371     0614  2E17               	goto	i1l275
  7372     0615                     u172_20:
  7373     0615                     i1l2275:
  7374                           
  7375                           ;mcc_generated_files/LINDrivers/lin_slave.c: 324:     CountCallBack = 0;
  7376     0615  01C8               	clrf	_CountCallBack	;volatile
  7377                           
  7378                           ;mcc_generated_files/LINDrivers/lin_slave.c: 325:     LIN_timerRunning = 0;
  7379     0616  01C9               	clrf	_LIN_timerRunning
  7380     0617                     i1l275:
  7381     0617  0008               	return
  7382     0618                     __end_of_LIN_timerHandler:
  7383                           
  7384                           	psect	text58
  7385     06D2                     __ptext58:	
  7386 ;; *************** function _TMR0_DefaultInterruptHandler *****************
  7387 ;; Defined at:
  7388 ;;		line 131 in file "mcc_generated_files/tmr0.c"
  7389 ;; Parameters:    Size  Location     Type
  7390 ;;		None
  7391 ;; Auto vars:     Size  Location     Type
  7392 ;;		None
  7393 ;; Return value:  Size  Location     Type
  7394 ;;                  1    wreg      void 
  7395 ;; Registers used:
  7396 ;;		None
  7397 ;; Tracked objects:
  7398 ;;		On entry : 0/0
  7399 ;;		On exit  : 0/0
  7400 ;;		Unchanged: 0/0
  7401 ;; Data sizes:     COMMON   BANK0   BANK1   BANK2   BANK3   BANK4   BANK5   BANK6
  7402 ;;      Params:         0       0       0       0       0       0       0       0
  7403 ;;      Locals:         0       0       0       0       0       0       0       0
  7404 ;;      Temps:          0       0       0       0       0       0       0       0
  7405 ;;      Totals:         0       0       0       0       0       0       0       0
  7406 ;;Total ram usage:        0 bytes
  7407 ;; Hardware stack levels used: 1
  7408 ;; This function calls:
  7409 ;;		Nothing
  7410 ;; This function is called by:
  7411 ;;		_TMR0_Initialize
  7412 ;;		_TMR0_ISR
  7413 ;; This function uses a non-reentrant model
  7414 ;;
  7415                           
  7416     06D2                     _TMR0_DefaultInterruptHandler:	
  7417                           ;psect for function _TMR0_DefaultInterruptHandler
  7418                           
  7419     06D2                     i1l510:	
  7420                           ;incstack = 0
  7421                           ; Regs used in _TMR0_DefaultInterruptHandler: []
  7422                           
  7423     06D2  0008               	return
  7424     06D3                     __end_of_TMR0_DefaultInterruptHandler:
  7425                           
  7426                           	psect	text59
  7427     04DE                     __ptext59:	
  7428 ;; *************** function _EUSART_Transmit_ISR *****************
  7429 ;; Defined at:
  7430 ;;		line 218 in file "mcc_generated_files/eusart.c"
  7431 ;; Parameters:    Size  Location     Type
  7432 ;;		None
  7433 ;; Auto vars:     Size  Location     Type
  7434 ;;		None
  7435 ;; Return value:  Size  Location     Type
  7436 ;;                  1    wreg      void 
  7437 ;; Registers used:
  7438 ;;		wreg, fsr1l, fsr1h, status,2, status,0
  7439 ;; Tracked objects:
  7440 ;;		On entry : 0/0
  7441 ;;		On exit  : 0/0
  7442 ;;		Unchanged: 0/0
  7443 ;; Data sizes:     COMMON   BANK0   BANK1   BANK2   BANK3   BANK4   BANK5   BANK6
  7444 ;;      Params:         0       0       0       0       0       0       0       0
  7445 ;;      Locals:         0       0       0       0       0       0       0       0
  7446 ;;      Temps:          1       0       0       0       0       0       0       0
  7447 ;;      Totals:         1       0       0       0       0       0       0       0
  7448 ;;Total ram usage:        1 bytes
  7449 ;; Hardware stack levels used: 1
  7450 ;; This function calls:
  7451 ;;		Nothing
  7452 ;; This function is called by:
  7453 ;;		_EUSART_Initialize
  7454 ;;		_INTERRUPT_InterruptManager
  7455 ;; This function uses a non-reentrant model
  7456 ;;
  7457                           
  7458     04DE                     _EUSART_Transmit_ISR:	
  7459                           ;psect for function _EUSART_Transmit_ISR
  7460                           
  7461     04DE                     i1l2431:	
  7462                           ;incstack = 0
  7463                           ; Regs used in _EUSART_Transmit_ISR: [wreg+fsr1l+fsr1h+status,2+status,0]
  7464                           
  7465                           
  7466                           ;mcc_generated_files/eusart.c: 223:     if(sizeof(eusartTxBuffer) > eusartTxBufferRemain
      +                          ing)
  7467     04DE  3008               	movlw	8
  7468     04DF  0020               	movlb	0	; select bank0
  7469     04E0  0243               	subwf	_eusartTxBufferRemaining,w	;volatile
  7470     04E1  1803               	skipnc
  7471     04E2  2CE4               	goto	u188_21
  7472     04E3  2CE5               	goto	u188_20
  7473     04E4                     u188_21:
  7474     04E4  2CFD               	goto	i1l432
  7475     04E5                     u188_20:
  7476     04E5                     i1l2433:
  7477                           
  7478                           ;mcc_generated_files/eusart.c: 224:     {;mcc_generated_files/eusart.c: 225:         TXR
      +                          EG = eusartTxBuffer[eusartTxTail++];
  7479     04E5  0844               	movf	_eusartTxTail,w
  7480     04E6  3E28               	addlw	(low (_eusartTxBuffer| 0))& (0+255)
  7481     04E7  0086               	movwf	6
  7482     04E8  0187               	clrf	7
  7483     04E9  0801               	movf	1,w
  7484     04EA  0023               	movlb	3	; select bank3
  7485     04EB  009A               	movwf	26	;volatile
  7486     04EC                     i1l2435:
  7487     04EC  3001               	movlw	1
  7488     04ED  00F0               	movwf	??_EUSART_Transmit_ISR
  7489     04EE  0870               	movf	??_EUSART_Transmit_ISR,w
  7490     04EF  0020               	movlb	0	; select bank0
  7491     04F0  07C4               	addwf	_eusartTxTail,f	;volatile
  7492     04F1                     i1l2437:
  7493                           
  7494                           ;mcc_generated_files/eusart.c: 227:         if(sizeof(eusartTxBuffer) <= eusartTxTail)
  7495     04F1  3008               	movlw	8
  7496     04F2  0244               	subwf	_eusartTxTail,w	;volatile
  7497     04F3  1C03               	skipc
  7498     04F4  2CF6               	goto	u189_21
  7499     04F5  2CF7               	goto	u189_20
  7500     04F6                     u189_21:
  7501     04F6  2CF8               	goto	i1l2441
  7502     04F7                     u189_20:
  7503     04F7                     i1l2439:
  7504                           
  7505                           ;mcc_generated_files/eusart.c: 228:         {;mcc_generated_files/eusart.c: 229:        
      +                               eusartTxTail = 0;
  7506     04F7  01C4               	clrf	_eusartTxTail	;volatile
  7507     04F8                     i1l2441:
  7508                           
  7509                           ;mcc_generated_files/eusart.c: 231:         eusartTxBufferRemaining++;
  7510     04F8  3001               	movlw	1
  7511     04F9  00F0               	movwf	??_EUSART_Transmit_ISR
  7512     04FA  0870               	movf	??_EUSART_Transmit_ISR,w
  7513     04FB  07C3               	addwf	_eusartTxBufferRemaining,f	;volatile
  7514                           
  7515                           ;mcc_generated_files/eusart.c: 232:     }
  7516     04FC  2CFF               	goto	i1l435
  7517     04FD                     i1l432:	
  7518                           ;mcc_generated_files/eusart.c: 233:     else
  7519                           
  7520                           
  7521                           ;mcc_generated_files/eusart.c: 234:     {;mcc_generated_files/eusart.c: 235:         PIE
      +                          1bits.TXIE = 0;
  7522     04FD  0021               	movlb	1	; select bank1
  7523     04FE  1211               	bcf	17,4	;volatile
  7524     04FF                     i1l435:
  7525     04FF  0008               	return
  7526     0500                     __end_of_EUSART_Transmit_ISR:
  7527                           
  7528                           	psect	text60
  7529     03DA                     __ptext60:	
  7530 ;; *************** function _EUSART_Receive_ISR *****************
  7531 ;; Defined at:
  7532 ;;		line 240 in file "mcc_generated_files/eusart.c"
  7533 ;; Parameters:    Size  Location     Type
  7534 ;;		None
  7535 ;; Auto vars:     Size  Location     Type
  7536 ;;		None
  7537 ;; Return value:  Size  Location     Type
  7538 ;;                  1    wreg      void 
  7539 ;; Registers used:
  7540 ;;		wreg, fsr1l, fsr1h, status,2, status,0, pclath, cstack
  7541 ;; Tracked objects:
  7542 ;;		On entry : 0/0
  7543 ;;		On exit  : 0/0
  7544 ;;		Unchanged: 0/0
  7545 ;; Data sizes:     COMMON   BANK0   BANK1   BANK2   BANK3   BANK4   BANK5   BANK6
  7546 ;;      Params:         0       0       0       0       0       0       0       0
  7547 ;;      Locals:         0       0       0       0       0       0       0       0
  7548 ;;      Temps:          0       0       0       0       0       0       0       0
  7549 ;;      Totals:         0       0       0       0       0       0       0       0
  7550 ;;Total ram usage:        0 bytes
  7551 ;; Hardware stack levels used: 1
  7552 ;; Hardware stack levels required when called: 2
  7553 ;; This function calls:
  7554 ;;		NULL
  7555 ;;		_EUSART_DefaultErrorHandler
  7556 ;;		_EUSART_DefaultFramingErrorHandler
  7557 ;;		_EUSART_DefaultOverrunErrorHandler
  7558 ;;		_EUSART_RxDataHandler
  7559 ;; This function is called by:
  7560 ;;		_EUSART_Initialize
  7561 ;;		_INTERRUPT_InterruptManager
  7562 ;; This function uses a non-reentrant model
  7563 ;;
  7564                           
  7565     03DA                     _EUSART_Receive_ISR:	
  7566                           ;psect for function _EUSART_Receive_ISR
  7567                           
  7568     03DA                     i1l2443:	
  7569                           ;incstack = 0
  7570                           ; Regs used in _EUSART_Receive_ISR: [wreg+fsr1l+fsr1h+status,2+status,0+pclath+cstack]
  7571                           
  7572                           
  7573                           ;mcc_generated_files/eusart.c: 242:     eusartRxStatusBuffer[eusartRxHead].status = 0;
  7574     03DA  087C               	movf	_eusartRxHead,w	;volatile
  7575     03DB  3E20               	addlw	(low (_eusartRxStatusBuffer| 0))& (0+255)
  7576     03DC  0086               	movwf	6
  7577     03DD  0187               	clrf	7
  7578     03DE  0181               	clrf	1
  7579     03DF                     i1l2445:
  7580                           
  7581                           ;mcc_generated_files/eusart.c: 245:     if(RCSTAbits.FERR){
  7582     03DF  0023               	movlb	3	; select bank3
  7583     03E0  1D1D               	btfss	29,2	;volatile
  7584     03E1  2BE3               	goto	u190_21
  7585     03E2  2BE4               	goto	u190_20
  7586     03E3                     u190_21:
  7587     03E3  2BEF               	goto	i1l2451
  7588     03E4                     u190_20:
  7589     03E4                     i1l2447:
  7590                           
  7591                           ;mcc_generated_files/eusart.c: 246:         eusartRxStatusBuffer[eusartRxHead].ferr = 1;
  7592     03E4  087C               	movf	_eusartRxHead,w	;volatile
  7593     03E5  3E20               	addlw	(low (_eusartRxStatusBuffer| 0))& (0+255)
  7594     03E6  0086               	movwf	6
  7595     03E7  0187               	clrf	7
  7596     03E8  1481               	bsf	1,1
  7597     03E9                     i1l2449:
  7598                           
  7599                           ;mcc_generated_files/eusart.c: 247:         EUSART_FramingErrorHandler();
  7600     03E9  0020               	movlb	0	; select bank0
  7601     03EA  0837               	movf	_EUSART_FramingErrorHandler+1,w
  7602     03EB  008A               	movwf	10
  7603     03EC  0836               	movf	_EUSART_FramingErrorHandler,w
  7604     03ED  000A               	callw
  7605     03EE  3183               	pagesel	$
  7606     03EF                     i1l2451:
  7607                           
  7608                           ;mcc_generated_files/eusart.c: 251:     if(RCSTAbits.OERR){
  7609     03EF  0023               	movlb	3	; select bank3
  7610     03F0  1C9D               	btfss	29,1	;volatile
  7611     03F1  2BF3               	goto	u191_21
  7612     03F2  2BF4               	goto	u191_20
  7613     03F3                     u191_21:
  7614     03F3  2BFF               	goto	i1l2457
  7615     03F4                     u191_20:
  7616     03F4                     i1l2453:
  7617                           
  7618                           ;mcc_generated_files/eusart.c: 252:         eusartRxStatusBuffer[eusartRxHead].oerr = 1;
  7619     03F4  087C               	movf	_eusartRxHead,w	;volatile
  7620     03F5  3E20               	addlw	(low (_eusartRxStatusBuffer| 0))& (0+255)
  7621     03F6  0086               	movwf	6
  7622     03F7  0187               	clrf	7
  7623     03F8  1501               	bsf	1,2
  7624     03F9                     i1l2455:
  7625                           
  7626                           ;mcc_generated_files/eusart.c: 253:         EUSART_OverrunErrorHandler();
  7627     03F9  0020               	movlb	0	; select bank0
  7628     03FA  0835               	movf	_EUSART_OverrunErrorHandler+1,w
  7629     03FB  008A               	movwf	10
  7630     03FC  0834               	movf	_EUSART_OverrunErrorHandler,w
  7631     03FD  000A               	callw
  7632     03FE  3183               	pagesel	$
  7633     03FF                     i1l2457:
  7634                           
  7635                           ;mcc_generated_files/eusart.c: 257:     if(eusartRxStatusBuffer[eusartRxHead].status){
  7636     03FF  087C               	movf	_eusartRxHead,w	;volatile
  7637     0400  3E20               	addlw	(low (_eusartRxStatusBuffer| 0))& (0+255)
  7638     0401  0086               	movwf	6
  7639     0402  0187               	clrf	7
  7640     0403  0801               	movf	1,w
  7641     0404  1903               	btfsc	3,2
  7642     0405  2C07               	goto	u192_21
  7643     0406  2C08               	goto	u192_20
  7644     0407                     u192_21:
  7645     0407  2C0F               	goto	i1l2461
  7646     0408                     u192_20:
  7647     0408                     i1l2459:
  7648                           
  7649                           ;mcc_generated_files/eusart.c: 258:         EUSART_ErrorHandler();
  7650     0408  0020               	movlb	0	; select bank0
  7651     0409  0833               	movf	_EUSART_ErrorHandler+1,w
  7652     040A  008A               	movwf	10
  7653     040B  0832               	movf	_EUSART_ErrorHandler,w
  7654     040C  000A               	callw
  7655     040D  3183               	pagesel	$
  7656                           
  7657                           ;mcc_generated_files/eusart.c: 259:     } else {
  7658     040E  2C12               	goto	i1l442
  7659     040F                     i1l2461:
  7660                           
  7661                           ;mcc_generated_files/eusart.c: 261:         EUSART_RxDataHandler();
  7662     040F  3185  2585  3183   	fcall	_EUSART_RxDataHandler
  7663     0412                     i1l442:
  7664     0412  0008               	return
  7665     0413                     __end_of_EUSART_Receive_ISR:
  7666                           
  7667                           	psect	text61
  7668     069B                     __ptext61:	
  7669 ;; *************** function _EUSART_DefaultOverrunErrorHandler *****************
  7670 ;; Defined at:
  7671 ;;		line 284 in file "mcc_generated_files/eusart.c"
  7672 ;; Parameters:    Size  Location     Type
  7673 ;;		None
  7674 ;; Auto vars:     Size  Location     Type
  7675 ;;		None
  7676 ;; Return value:  Size  Location     Type
  7677 ;;                  1    wreg      void 
  7678 ;; Registers used:
  7679 ;;		None
  7680 ;; Tracked objects:
  7681 ;;		On entry : 0/0
  7682 ;;		On exit  : 0/0
  7683 ;;		Unchanged: 0/0
  7684 ;; Data sizes:     COMMON   BANK0   BANK1   BANK2   BANK3   BANK4   BANK5   BANK6
  7685 ;;      Params:         0       0       0       0       0       0       0       0
  7686 ;;      Locals:         0       0       0       0       0       0       0       0
  7687 ;;      Temps:          0       0       0       0       0       0       0       0
  7688 ;;      Totals:         0       0       0       0       0       0       0       0
  7689 ;;Total ram usage:        0 bytes
  7690 ;; Hardware stack levels used: 1
  7691 ;; This function calls:
  7692 ;;		Nothing
  7693 ;; This function is called by:
  7694 ;;		_EUSART_Initialize
  7695 ;;		_EUSART_Receive_ISR
  7696 ;; This function uses a non-reentrant model
  7697 ;;
  7698                           
  7699     069B                     _EUSART_DefaultOverrunErrorHandler:	
  7700                           ;psect for function _EUSART_DefaultOverrunErrorHandler
  7701                           
  7702     069B                     i1l2313:	
  7703                           ;incstack = 0
  7704                           ; Regs used in _EUSART_DefaultOverrunErrorHandler: []
  7705                           
  7706                           
  7707                           ;mcc_generated_files/eusart.c: 287:     RCSTAbits.CREN = 0;
  7708     069B  0023               	movlb	3	; select bank3
  7709     069C  121D               	bcf	29,4	;volatile
  7710                           
  7711                           ;mcc_generated_files/eusart.c: 288:     RCSTAbits.CREN = 1;
  7712     069D  161D               	bsf	29,4	;volatile
  7713     069E                     i1l452:
  7714     069E  0008               	return
  7715     069F                     __end_of_EUSART_DefaultOverrunErrorHandler:
  7716                           
  7717                           	psect	text62
  7718     06D3                     __ptext62:	
  7719 ;; *************** function _EUSART_DefaultFramingErrorHandler *****************
  7720 ;; Defined at:
  7721 ;;		line 282 in file "mcc_generated_files/eusart.c"
  7722 ;; Parameters:    Size  Location     Type
  7723 ;;		None
  7724 ;; Auto vars:     Size  Location     Type
  7725 ;;		None
  7726 ;; Return value:  Size  Location     Type
  7727 ;;                  1    wreg      void 
  7728 ;; Registers used:
  7729 ;;		None
  7730 ;; Tracked objects:
  7731 ;;		On entry : 0/0
  7732 ;;		On exit  : 0/0
  7733 ;;		Unchanged: 0/0
  7734 ;; Data sizes:     COMMON   BANK0   BANK1   BANK2   BANK3   BANK4   BANK5   BANK6
  7735 ;;      Params:         0       0       0       0       0       0       0       0
  7736 ;;      Locals:         0       0       0       0       0       0       0       0
  7737 ;;      Temps:          0       0       0       0       0       0       0       0
  7738 ;;      Totals:         0       0       0       0       0       0       0       0
  7739 ;;Total ram usage:        0 bytes
  7740 ;; Hardware stack levels used: 1
  7741 ;; This function calls:
  7742 ;;		Nothing
  7743 ;; This function is called by:
  7744 ;;		_EUSART_Initialize
  7745 ;;		_EUSART_Receive_ISR
  7746 ;; This function uses a non-reentrant model
  7747 ;;
  7748                           
  7749     06D3                     _EUSART_DefaultFramingErrorHandler:	
  7750                           ;psect for function _EUSART_DefaultFramingErrorHandler
  7751                           
  7752     06D3                     i1l449:	
  7753                           ;incstack = 0
  7754                           ; Regs used in _EUSART_DefaultFramingErrorHandler: []
  7755                           
  7756     06D3  0008               	return
  7757     06D4                     __end_of_EUSART_DefaultFramingErrorHandler:
  7758                           
  7759                           	psect	text63
  7760     069F                     __ptext63:	
  7761 ;; *************** function _EUSART_DefaultErrorHandler *****************
  7762 ;; Defined at:
  7763 ;;		line 292 in file "mcc_generated_files/eusart.c"
  7764 ;; Parameters:    Size  Location     Type
  7765 ;;		None
  7766 ;; Auto vars:     Size  Location     Type
  7767 ;;		None
  7768 ;; Return value:  Size  Location     Type
  7769 ;;                  1    wreg      void 
  7770 ;; Registers used:
  7771 ;;		wreg, fsr1l, fsr1h, status,2, status,0, pclath, cstack
  7772 ;; Tracked objects:
  7773 ;;		On entry : 0/0
  7774 ;;		On exit  : 0/0
  7775 ;;		Unchanged: 0/0
  7776 ;; Data sizes:     COMMON   BANK0   BANK1   BANK2   BANK3   BANK4   BANK5   BANK6
  7777 ;;      Params:         0       0       0       0       0       0       0       0
  7778 ;;      Locals:         0       0       0       0       0       0       0       0
  7779 ;;      Temps:          0       0       0       0       0       0       0       0
  7780 ;;      Totals:         0       0       0       0       0       0       0       0
  7781 ;;Total ram usage:        0 bytes
  7782 ;; Hardware stack levels used: 1
  7783 ;; Hardware stack levels required when called: 1
  7784 ;; This function calls:
  7785 ;;		_EUSART_RxDataHandler
  7786 ;; This function is called by:
  7787 ;;		_EUSART_Initialize
  7788 ;;		_EUSART_Receive_ISR
  7789 ;; This function uses a non-reentrant model
  7790 ;;
  7791                           
  7792     069F                     _EUSART_DefaultErrorHandler:	
  7793                           ;psect for function _EUSART_DefaultErrorHandler
  7794                           
  7795     069F                     i1l2315:	
  7796                           ;incstack = 0
  7797                           ; Regs used in _EUSART_DefaultErrorHandler: [wreg+fsr1l+fsr1h+status,2+status,0+pclath+c
      +                          stack]
  7798                           
  7799                           
  7800                           ;mcc_generated_files/eusart.c: 293:     EUSART_RxDataHandler();
  7801     069F  3185  2585  3186   	fcall	_EUSART_RxDataHandler
  7802     06A2                     i1l455:
  7803     06A2  0008               	return
  7804     06A3                     __end_of_EUSART_DefaultErrorHandler:
  7805                           
  7806                           	psect	text64
  7807     0585                     __ptext64:	
  7808 ;; *************** function _EUSART_RxDataHandler *****************
  7809 ;; Defined at:
  7810 ;;		line 268 in file "mcc_generated_files/eusart.c"
  7811 ;; Parameters:    Size  Location     Type
  7812 ;;		None
  7813 ;; Auto vars:     Size  Location     Type
  7814 ;;		None
  7815 ;; Return value:  Size  Location     Type
  7816 ;;                  1    wreg      void 
  7817 ;; Registers used:
  7818 ;;		wreg, fsr1l, fsr1h, status,2, status,0
  7819 ;; Tracked objects:
  7820 ;;		On entry : 0/0
  7821 ;;		On exit  : 0/0
  7822 ;;		Unchanged: 0/0
  7823 ;; Data sizes:     COMMON   BANK0   BANK1   BANK2   BANK3   BANK4   BANK5   BANK6
  7824 ;;      Params:         0       0       0       0       0       0       0       0
  7825 ;;      Locals:         0       0       0       0       0       0       0       0
  7826 ;;      Temps:          1       0       0       0       0       0       0       0
  7827 ;;      Totals:         1       0       0       0       0       0       0       0
  7828 ;;Total ram usage:        1 bytes
  7829 ;; Hardware stack levels used: 1
  7830 ;; This function calls:
  7831 ;;		Nothing
  7832 ;; This function is called by:
  7833 ;;		_EUSART_Receive_ISR
  7834 ;;		_EUSART_DefaultErrorHandler
  7835 ;; This function uses a non-reentrant model
  7836 ;;
  7837                           
  7838     0585                     _EUSART_RxDataHandler:	
  7839                           ;psect for function _EUSART_RxDataHandler
  7840                           
  7841     0585                     i1l2091:	
  7842                           ;incstack = 0
  7843                           ; Regs used in _EUSART_RxDataHandler: [wreg+fsr1l+fsr1h+status,2+status,0]
  7844                           
  7845                           
  7846                           ;mcc_generated_files/eusart.c: 272:     eusartRxBuffer[eusartRxHead++] = RCREG;
  7847     0585  087C               	movf	_eusartRxHead,w
  7848     0586  3EA0               	addlw	(low (_eusartRxBuffer| 0))& (0+255)
  7849     0587  0086               	movwf	6
  7850     0588  0187               	clrf	7
  7851     0589  0023               	movlb	3	; select bank3
  7852     058A  0819               	movf	25,w	;volatile
  7853     058B  0081               	movwf	1
  7854     058C                     i1l2093:
  7855     058C  3001               	movlw	1
  7856     058D  00F0               	movwf	??_EUSART_RxDataHandler
  7857     058E  0870               	movf	??_EUSART_RxDataHandler,w
  7858     058F  07FC               	addwf	_eusartRxHead,f	;volatile
  7859     0590                     i1l2095:
  7860                           
  7861                           ;mcc_generated_files/eusart.c: 274:     if(sizeof(eusartRxBuffer) <= eusartRxHead)
  7862     0590  3008               	movlw	8
  7863     0591  027C               	subwf	_eusartRxHead,w	;volatile
  7864     0592  1C03               	skipc
  7865     0593  2D95               	goto	u142_21
  7866     0594  2D96               	goto	u142_20
  7867     0595                     u142_21:
  7868     0595  2D97               	goto	i1l2099
  7869     0596                     u142_20:
  7870     0596                     i1l2097:
  7871                           
  7872                           ;mcc_generated_files/eusart.c: 275:     {;mcc_generated_files/eusart.c: 276:         eus
      +                          artRxHead = 0;
  7873     0596  01FC               	clrf	_eusartRxHead	;volatile
  7874     0597                     i1l2099:
  7875                           
  7876                           ;mcc_generated_files/eusart.c: 279:     eusartRxCount++;
  7877     0597  3001               	movlw	1
  7878     0598  00F0               	movwf	??_EUSART_RxDataHandler
  7879     0599  0870               	movf	??_EUSART_RxDataHandler,w
  7880     059A  0020               	movlb	0	; select bank0
  7881     059B  07C2               	addwf	_eusartRxCount,f	;volatile
  7882     059C                     i1l446:
  7883     059C  0008               	return
  7884     059D                     __end_of_EUSART_RxDataHandler:
  7885     007E                     btemp	set	126	;btemp
  7886     007E                     int$flags	set	126
  7887     007E                     wtemp0	set	126
  7888                           
  7889                           	psect	config
  7890                           
  7891                           ;Config register CONFIG1 @ 0x8007
  7892                           ;	Oscillator Selection
  7893                           ;	FOSC = INTOSC, INTOSC oscillator: I/O function on CLKIN pin
  7894                           ;	Watchdog Timer Enable
  7895                           ;	WDTE = OFF, WDT disabled
  7896                           ;	Power-up Timer Enable
  7897                           ;	PWRTE = OFF, PWRT disabled
  7898                           ;	MCLR Pin Function Select
  7899                           ;	MCLRE = ON, MCLR/VPP pin function is MCLR
  7900                           ;	Flash Program Memory Code Protection
  7901                           ;	CP = OFF, Program memory code protection is disabled
  7902                           ;	Data Memory Code Protection
  7903                           ;	CPD = OFF, Data memory code protection is disabled
  7904                           ;	Brown-out Reset Enable
  7905                           ;	BOREN = ON, Brown-out Reset enabled
  7906                           ;	Clock Out Enable
  7907                           ;	CLKOUTEN = OFF, CLKOUT function is disabled. I/O or oscillator function on the CLKOUT 
      +                          pin
  7908                           ;	Internal/External Switchover
  7909                           ;	IESO = ON, Internal/External Switchover mode is enabled
  7910                           ;	Fail-Safe Clock Monitor Enable
  7911                           ;	FCMEN = ON, Fail-Safe Clock Monitor is enabled
  7912     8007                     	org	32775
  7913     8007  3FE4               	dw	16356
  7914                           
  7915                           ;Config register CONFIG2 @ 0x8008
  7916                           ;	Flash Memory Self-Write Protection
  7917                           ;	WRT = OFF, Write protection off
  7918                           ;	Voltage Regulator Capacitor Enable
  7919                           ;	VCAPEN = OFF, All VCAP pin functionality is disabled
  7920                           ;	PLL Enable
  7921                           ;	PLLEN = ON, 4x PLL enabled
  7922                           ;	Stack Overflow/Underflow Reset Enable
  7923                           ;	STVREN = ON, Stack Overflow or Underflow will cause a Reset
  7924                           ;	Brown-out Reset Voltage Selection
  7925                           ;	BORV = LO, Brown-out Reset Voltage (Vbor), low trip point selected.
  7926                           ;	Low-Voltage Programming Enable
  7927                           ;	LVP = OFF, High-voltage on MCLR/VPP must be used for programming
  7928     8008                     	org	32776
  7929     8008  1FFF               	dw	8191

Data Sizes:
    Strings     0
    Constant    4
    Data        1
    BSS         78
    Persistent  32
    Stack       0

Auto Spaces:
    Space          Size  Autos    Used
    COMMON           14     11      13
    BANK0            80     13      74
    BANK1            80      0      16
    BANK2            80      0       0
    BANK3            80      0       0
    BANK4            80      0       0
    BANK5            80      0       0
    BANK6            16      0       0

Pointer List with Targets:

    EUSART_ErrorHandler	PTR FTN()void  size(2) Largest target is 1
		 -> EUSART_DefaultErrorHandler(), NULL(), 

    EUSART_FramingErrorHandler	PTR FTN()void  size(2) Largest target is 1
		 -> EUSART_DefaultFramingErrorHandler(), NULL(), 

    EUSART_OverrunErrorHandler	PTR FTN()void  size(2) Largest target is 1
		 -> EUSART_DefaultOverrunErrorHandler(), NULL(), 

    EUSART_RxDefaultInterruptHandler	PTR FTN()void  size(2) Largest target is 1
		 -> EUSART_Receive_ISR(), NULL(), 

    EUSART_SetErrorHandler@interruptHandler	PTR FTN()void  size(2) Largest target is 1
		 -> EUSART_DefaultErrorHandler(), 

    EUSART_SetFramingErrorHandler@interruptHandler	PTR FTN()void  size(2) Largest target is 1
		 -> EUSART_DefaultFramingErrorHandler(), 

    EUSART_SetOverrunErrorHandler@interruptHandler	PTR FTN()void  size(2) Largest target is 1
		 -> EUSART_DefaultOverrunErrorHandler(), 

    EUSART_SetRxInterruptHandler@interruptHandler	PTR FTN()void  size(2) Largest target is 1
		 -> EUSART_Receive_ISR(), 

    EUSART_SetTxInterruptHandler@interruptHandler	PTR FTN()void  size(2) Largest target is 1
		 -> EUSART_Transmit_ISR(), 

    EUSART_TxDefaultInterruptHandler	PTR FTN()void  size(2) Largest target is 1
		 -> EUSART_Transmit_ISR(), NULL(), 

    LIN_getChecksum@data	PTR unsigned char  size(1) Largest target is 13
		 -> LIN_packet(BANK0[13]), 

    LIN_getFromTable@rxCommand	PTR const struct . size(2) Largest target is 5
		 -> scheduleTable(CODE[4]), NULL(NULL[0]), 

    LIN_getFromTable@rxCommand$data	PTR unsigned char  size(1) Largest target is 8
		 -> SW_STATE_Data(BANK1[8]), 

    LIN_getPacket@data	PTR unsigned char  size(1) Largest target is 8
		 -> processLIN@tempRxData(BANK0[8]), 

    LIN_init@command	const PTR const struct . size(2) Largest target is 5
		 -> scheduleTable(CODE[4]), 

    LIN_init@processData	PTR FTN()void  size(2) Largest target is 1
		 -> processLIN(), 

    LIN_processData	PTR FTN()void  size(2) Largest target is 1
		 -> processLIN(), NULL(), 

    LIN_queuePacket@tempSchedule	PTR const struct . size(2) Largest target is 5
		 -> scheduleTable(CODE[4]), NULL(NULL[0]), 

    LIN_queuePacket@tempSchedule$data	PTR unsigned char  size(1) Largest target is 8
		 -> SW_STATE_Data(BANK1[8]), 

    LIN_rxCommand	PTR const struct . size(2) Largest target is 5
		 -> scheduleTable(CODE[4]), NULL(NULL[0]), 

    LIN_rxCommand$data	PTR unsigned char  size(1) Largest target is 8
		 -> SW_STATE_Data(BANK1[8]), 

    LIN_sendPacket@data	PTR unsigned char  size(1) Largest target is 13
		 -> LIN_packet(BANK0[13]), 

    memcpy@d	PTR unsigned char  size(1) Largest target is 13
		 -> LIN_packet(BANK0[13]), processLIN@tempRxData(BANK0[8]), 

    memcpy@d1	PTR void  size(1) Largest target is 13
		 -> LIN_packet(BANK0[13]), processLIN@tempRxData(BANK0[8]), 

    memcpy@s	PTR const unsigned char  size(1) Largest target is 13
		 -> LIN_packet(BANK0[13]), LIN_packet$data(BANK0[8]), SW_STATE_Data(BANK1[8]), 

    memcpy@s1	PTR const void  size(1) Largest target is 13
		 -> LIN_packet(BANK0[13]), LIN_packet$data(BANK0[8]), SW_STATE_Data(BANK1[8]), 

    memset@dest	PTR void  size(1) Largest target is 13
		 -> LIN_packet(BANK0[13]), 

    memset@p	PTR unsigned char  size(1) Largest target is 13
		 -> LIN_packet(BANK0[13]), 

    S26$data	PTR unsigned char  size(1) Largest target is 8
		 -> SW_STATE_Data(BANK1[8]), 

    scheduleTable$data	PTR unsigned char  size(1) Largest target is 8
		 -> SW_STATE_Data(BANK1[8]), 

    sp__memcpy	PTR void  size(1) Largest target is 13
		 -> LIN_packet(BANK0[13]), processLIN@tempRxData(BANK0[8]), 

    sp__memset	PTR void  size(1) Largest target is 13
		 -> LIN_packet(BANK0[13]), 

    TMR0_InterruptHandler	PTR FTN()void  size(2) Largest target is 1
		 -> LIN_timerHandler(), TMR0_DefaultInterruptHandler(), NULL(), 

    TMR0_SetInterruptHandler@InterruptHandler	PTR FTN()void  size(2) Largest target is 1
		 -> LIN_timerHandler(), TMR0_DefaultInterruptHandler(), 


Critical Paths under _main in COMMON

    _TMR0_Initialize->_TMR0_SetInterruptHandler
    _LIN_Slave_Initialize->_LIN_init
    _LIN_setTimerHandler->_TMR0_SetInterruptHandler
    _EUSART_Initialize->_EUSART_SetErrorHandler
    _EUSART_Initialize->_EUSART_SetFramingErrorHandler
    _EUSART_Initialize->_EUSART_SetOverrunErrorHandler
    _EUSART_Initialize->_EUSART_SetRxInterruptHandler
    _EUSART_Initialize->_EUSART_SetTxInterruptHandler
    _processLIN->_LIN_getPacket
    _LIN_getPacket->_memcpy
    _LIN_queuePacket->_LIN_sendPacket
    _LIN_sendPacket->_LIN_getChecksum
    _LIN_checkPID->_LIN_getFromTable
    _LIN_breakCheck->_EUSART_Read

Critical Paths under _INTERRUPT_InterruptManager in COMMON

    _INTERRUPT_InterruptManager->_EUSART_Transmit_ISR
    _TMR0_ISR->_LIN_timerHandler
    _EUSART_Receive_ISR->_EUSART_RxDataHandler
    _EUSART_DefaultErrorHandler->_EUSART_RxDataHandler

Critical Paths under _main in BANK0

    _main->_LIN_handler
    _LIN_handler->_LIN_queuePacket
    _LIN_queuePacket->_LIN_sendPacket

Critical Paths under _INTERRUPT_InterruptManager in BANK0

    None.

Critical Paths under _main in BANK1

    None.

Critical Paths under _INTERRUPT_InterruptManager in BANK1

    None.

Critical Paths under _main in BANK2

    None.

Critical Paths under _INTERRUPT_InterruptManager in BANK2

    None.

Critical Paths under _main in BANK3

    None.

Critical Paths under _INTERRUPT_InterruptManager in BANK3

    None.

Critical Paths under _main in BANK4

    None.

Critical Paths under _INTERRUPT_InterruptManager in BANK4

    None.

Critical Paths under _main in BANK5

    None.

Critical Paths under _INTERRUPT_InterruptManager in BANK5

    None.

Critical Paths under _main in BANK6

    None.

Critical Paths under _INTERRUPT_InterruptManager in BANK6

    None.

Call Graph Tables:

 ---------------------------------------------------------------------------------
 (Depth) Function   	        Calls       Base Space   Used Autos Params    Refs
 ---------------------------------------------------------------------------------
 (0) _main                                                 0     0      0    7370
                    _AutoBaud_Detect
                        _LIN_handler
                  _SYSTEM_Initialize
 ---------------------------------------------------------------------------------
 (1) _SYSTEM_Initialize                                    0     0      0    1085
                  _EUSART_Initialize
               _LIN_Slave_Initialize
              _OSCILLATOR_Initialize
             _PIN_MANAGER_Initialize
                    _TMR0_Initialize
                     _WDT_Initialize
 ---------------------------------------------------------------------------------
 (2) _WDT_Initialize                                       0     0      0       0
 ---------------------------------------------------------------------------------
 (2) _TMR0_Initialize                                      0     0      0     203
                     _TMR0_ReadTimer
           _TMR0_SetInterruptHandler
                    _TMR0_WriteTimer
 ---------------------------------------------------------------------------------
 (3) _TMR0_WriteTimer                                      1     1      0      22
                                              1 COMMON     1     1      0
 ---------------------------------------------------------------------------------
 (3) _TMR0_ReadTimer                                       1     1      0       7
 ---------------------------------------------------------------------------------
 (2) _PIN_MANAGER_Initialize                               0     0      0       0
 ---------------------------------------------------------------------------------
 (2) _OSCILLATOR_Initialize                                0     0      0       0
 ---------------------------------------------------------------------------------
 (2) _LIN_Slave_Initialize                                 0     0      0     392
                           _LIN_init
 ---------------------------------------------------------------------------------
 (3) _LIN_init                                             5     1      4     392
                                              3 COMMON     5     1      4
                       _LIN_enableRx
                _LIN_setTimerHandler
                      _LIN_stopTimer
 ---------------------------------------------------------------------------------
 (4) _LIN_setTimerHandler                                  0     0      0     174
           _TMR0_SetInterruptHandler
 ---------------------------------------------------------------------------------
 (3) _TMR0_SetInterruptHandler                             2     0      2     174
                                              1 COMMON     2     0      2
 ---------------------------------------------------------------------------------
 (2) _EUSART_Initialize                                    0     0      0     490
             _EUSART_SetErrorHandler
      _EUSART_SetFramingErrorHandler
      _EUSART_SetOverrunErrorHandler
       _EUSART_SetRxInterruptHandler
       _EUSART_SetTxInterruptHandler
                  _EUSART_is_tx_done
                 _EUSART_is_tx_ready
 ---------------------------------------------------------------------------------
 (3) _EUSART_is_tx_ready                                   0     0      0       0
 ---------------------------------------------------------------------------------
 (3) _EUSART_is_tx_done                                    0     0      0       0
 ---------------------------------------------------------------------------------
 (3) _EUSART_SetTxInterruptHandler                         2     0      2      98
                                              1 COMMON     2     0      2
 ---------------------------------------------------------------------------------
 (3) _EUSART_SetRxInterruptHandler                         2     0      2      98
                                              1 COMMON     2     0      2
 ---------------------------------------------------------------------------------
 (3) _EUSART_SetOverrunErrorHandler                        2     0      2      98
                                              1 COMMON     2     0      2
 ---------------------------------------------------------------------------------
 (3) _EUSART_SetFramingErrorHandler                        2     0      2      98
                                              1 COMMON     2     0      2
 ---------------------------------------------------------------------------------
 (3) _EUSART_SetErrorHandler                               2     0      2      98
                                              1 COMMON     2     0      2
 ---------------------------------------------------------------------------------
 (1) _LIN_handler                                          2     2      0    6285
                                             11 BANK0      2     2      0
                                NULL *
                        _EUSART_Read
                 _EUSART_is_rx_ready
                     _LIN_breakCheck
                       _LIN_checkPID
                      _LIN_disableRx
                       _LIN_enableRx
                    _LIN_getChecksum
                   _LIN_getFromTable
                    _LIN_queuePacket
                     _LIN_startTimer
                      _LIN_stopTimer
                             _memset
                         _processLIN *
 ---------------------------------------------------------------------------------
 (2) _processLIN                                           9     9      0    1449
                                              0 BANK0      9     9      0
                            _DRL_OFF
                             _DRL_ON
                         _HIBEAM_OFF
                          _HIBEAM_ON
                           _LEFT_OFF
                            _LEFT_ON
                      _LIN_getPacket
                         _LOBEAM_OFF
                          _LOBEAM_ON
                            _POS_OFF
                             _POS_ON
                          _RIGHT_OFF
                           _RIGHT_ON
 ---------------------------------------------------------------------------------
 (3) _RIGHT_ON                                             0     0      0       0
 ---------------------------------------------------------------------------------
 (3) _RIGHT_OFF                                            0     0      0       0
 ---------------------------------------------------------------------------------
 (3) _POS_ON                                               0     0      0       0
 ---------------------------------------------------------------------------------
 (3) _POS_OFF                                              0     0      0       0
 ---------------------------------------------------------------------------------
 (3) _LOBEAM_ON                                            0     0      0       0
 ---------------------------------------------------------------------------------
 (3) _LOBEAM_OFF                                           0     0      0       0
 ---------------------------------------------------------------------------------
 (3) _LIN_getPacket                                        2     2      0    1057
                                              9 COMMON     2     2      0
                             _memcpy
                             _memset
 ---------------------------------------------------------------------------------
 (4) _memset                                               7     3      4     466
                                              1 COMMON     7     3      4
 ---------------------------------------------------------------------------------
 (3) _LEFT_ON                                              0     0      0       0
 ---------------------------------------------------------------------------------
 (3) _LEFT_OFF                                             0     0      0       0
 ---------------------------------------------------------------------------------
 (3) _HIBEAM_ON                                            0     0      0       0
 ---------------------------------------------------------------------------------
 (3) _HIBEAM_OFF                                           0     0      0       0
 ---------------------------------------------------------------------------------
 (3) _DRL_ON                                               0     0      0       0
 ---------------------------------------------------------------------------------
 (3) _DRL_OFF                                              0     0      0       0
 ---------------------------------------------------------------------------------
 (4) _LIN_stopTimer                                        0     0      0       0
 ---------------------------------------------------------------------------------
 (2) _LIN_startTimer                                       1     1      0      22
                                              1 COMMON     1     1      0
                        _TMR0_Reload
 ---------------------------------------------------------------------------------
 (3) _TMR0_Reload                                          0     0      0       0
 ---------------------------------------------------------------------------------
 (2) _LIN_queuePacket                                      8     8      0    2439
                                              3 BANK0      8     8      0
                    _LIN_getChecksum
                     _LIN_sendPacket
                             _memcpy
 ---------------------------------------------------------------------------------
 (4) _memcpy                                               8     5      3     513
                                              1 COMMON     8     5      3
 ---------------------------------------------------------------------------------
 (3) _LIN_sendPacket                                       5     3      2    1086
                                              9 COMMON     2     0      2
                                              0 BANK0      3     3      0
                       _EUSART_Write
                    _LIN_getChecksum
 ---------------------------------------------------------------------------------
 (4) _LIN_getChecksum                                      8     6      2     639
                                              1 COMMON     8     6      2
 ---------------------------------------------------------------------------------
 (4) _EUSART_Write                                         2     2      0      44
                                              1 COMMON     2     2      0
 ---------------------------------------------------------------------------------
 (4) _LIN_enableRx                                         0     0      0       0
 ---------------------------------------------------------------------------------
 (2) _LIN_disableRx                                        0     0      0       0
 ---------------------------------------------------------------------------------
 (2) _LIN_checkPID                                         1     1      0     813
                                              8 COMMON     1     1      0
                     _LIN_calcParity
                   _LIN_getFromTable
 ---------------------------------------------------------------------------------
 (2) _LIN_getFromTable                                     7     6      1     409
                                              1 COMMON     7     6      1
 ---------------------------------------------------------------------------------
 (3) _LIN_calcParity                                       3     3      0     338
                                              1 COMMON     3     3      0
 ---------------------------------------------------------------------------------
 (2) _LIN_breakCheck                                       0     0      0      24
                        _EUSART_Read
             _EUSART_get_last_status
 ---------------------------------------------------------------------------------
 (3) _EUSART_get_last_status                               0     0      0       0
 ---------------------------------------------------------------------------------
 (3) _EUSART_Read                                          2     2      0      24
                                              1 COMMON     2     2      0
 ---------------------------------------------------------------------------------
 (2) _EUSART_is_rx_ready                                   0     0      0       0
 ---------------------------------------------------------------------------------
 (8) NULL(Fake)                                            0     0      0       0
 ---------------------------------------------------------------------------------
 (1) _AutoBaud_Detect                                      0     0      0       0
                 _AutoBaud_Detect_ON
 ---------------------------------------------------------------------------------
 (2) _AutoBaud_Detect_ON                                   0     0      0       0
 ---------------------------------------------------------------------------------
 Estimated maximum stack depth 8
 ---------------------------------------------------------------------------------
 (Depth) Function   	        Calls       Base Space   Used Autos Params    Refs
 ---------------------------------------------------------------------------------
 (6) _INTERRUPT_InterruptManager                           0     0      0       0
                                NULL *
                 _EUSART_Receive_ISR *
                _EUSART_Transmit_ISR *
                           _TMR0_ISR
 ---------------------------------------------------------------------------------
 (7) _TMR0_ISR                                             0     0      0       0
                                NULL *
                   _LIN_timerHandler *
       _TMR0_DefaultInterruptHandler *
 ---------------------------------------------------------------------------------
 (8) _TMR0_DefaultInterruptHandler                         0     0      0       0
 ---------------------------------------------------------------------------------
 (8) _LIN_timerHandler                                     1     1      0       0
                                              0 COMMON     1     1      0
 ---------------------------------------------------------------------------------
 (7) _EUSART_Transmit_ISR                                  1     1      0       0
                                              0 COMMON     1     1      0
 ---------------------------------------------------------------------------------
 (7) _EUSART_Receive_ISR                                   0     0      0       0
                                NULL *
         _EUSART_DefaultErrorHandler *
  _EUSART_DefaultFramingErrorHandler *
  _EUSART_DefaultOverrunErrorHandler *
               _EUSART_RxDataHandler
 ---------------------------------------------------------------------------------
 (8) _EUSART_DefaultOverrunErrorHandler                    0     0      0       0
 ---------------------------------------------------------------------------------
 (8) _EUSART_DefaultFramingErrorHandler                    0     0      0       0
 ---------------------------------------------------------------------------------
 (8) _EUSART_DefaultErrorHandler                           0     0      0       0
               _EUSART_RxDataHandler
 ---------------------------------------------------------------------------------
 (8) _EUSART_RxDataHandler                                 1     1      0       0
                                              0 COMMON     1     1      0
 ---------------------------------------------------------------------------------
 (8) NULL(Fake)                                            0     0      0       0
 ---------------------------------------------------------------------------------
 Estimated maximum stack depth 8
 ---------------------------------------------------------------------------------

 Call Graph Graphs:

 _main (ROOT)
   _AutoBaud_Detect
     _AutoBaud_Detect_ON
   _LIN_handler
     NULL(Fake) *
     _EUSART_Read *
     _EUSART_is_rx_ready *
     _LIN_breakCheck *
       _EUSART_Read
       _EUSART_get_last_status
     _LIN_checkPID *
       _LIN_calcParity
       _LIN_getFromTable
     _LIN_disableRx *
     _LIN_enableRx *
     _LIN_getChecksum *
     _LIN_getFromTable *
     _LIN_queuePacket *
       _LIN_getChecksum
       _LIN_sendPacket
         _EUSART_Write
         _LIN_getChecksum
       _memcpy
     _LIN_startTimer *
       _TMR0_Reload
     _LIN_stopTimer *
     _memset *
     _processLIN *
       _DRL_OFF
       _DRL_ON
       _HIBEAM_OFF
       _HIBEAM_ON
       _LEFT_OFF
       _LEFT_ON
       _LIN_getPacket
         _memcpy
         _memset
       _LOBEAM_OFF
       _LOBEAM_ON
       _POS_OFF
       _POS_ON
       _RIGHT_OFF
       _RIGHT_ON
   _SYSTEM_Initialize
     _EUSART_Initialize
       _EUSART_SetErrorHandler
       _EUSART_SetFramingErrorHandler
       _EUSART_SetOverrunErrorHandler
       _EUSART_SetRxInterruptHandler
       _EUSART_SetTxInterruptHandler
       _EUSART_is_tx_done
       _EUSART_is_tx_ready
     _LIN_Slave_Initialize
       _LIN_init
         _LIN_enableRx
         _LIN_setTimerHandler
           _TMR0_SetInterruptHandler
         _LIN_stopTimer
     _OSCILLATOR_Initialize
     _PIN_MANAGER_Initialize
     _TMR0_Initialize
       _TMR0_ReadTimer
       _TMR0_SetInterruptHandler
       _TMR0_WriteTimer
     _WDT_Initialize

 _INTERRUPT_InterruptManager (ROOT)
   NULL(Fake) *
   _EUSART_Receive_ISR *
     NULL(Fake) *
     _EUSART_DefaultErrorHandler *
       _EUSART_RxDataHandler
     _EUSART_DefaultFramingErrorHandler *
     _EUSART_DefaultOverrunErrorHandler *
     _EUSART_RxDataHandler *
   _EUSART_Transmit_ISR *
   _TMR0_ISR *
     NULL(Fake) *
     _LIN_timerHandler *
     _TMR0_DefaultInterruptHandler *

 Address spaces:
Name               Size   Autos  Total    Cost      Usage
BIGRAM             1F0      0       0       0        0.0%
EEDATA             100      0       0       0        0.0%
NULL                 0      0       0       0        0.0%
CODE                 0      0       0       0        0.0%
BITCOMMON            E      0       0       1        0.0%
BITSFR0              0      0       0       1        0.0%
SFR0                 0      0       0       1        0.0%
COMMON               E      B       D       2       92.9%
BITSFR1              0      0       0       2        0.0%
SFR1                 0      0       0       2        0.0%
BITSFR2              0      0       0       3        0.0%
SFR2                 0      0       0       3        0.0%
STACK                0      0       0       3        0.0%
BITSFR3              0      0       0       4        0.0%
SFR3                 0      0       0       4        0.0%
ABS                  0      0      67       4        0.0%
BITBANK0            50      0       0       5        0.0%
BITSFR4              0      0       0       5        0.0%
SFR4                 0      0       0       5        0.0%
BANK0               50      D      4A       6       92.5%
BITSFR5              0      0       0       6        0.0%
SFR5                 0      0       0       6        0.0%
BITBANK1            50      0       0       7        0.0%
BITSFR6              0      0       0       7        0.0%
SFR6                 0      0       0       7        0.0%
BANK1               50      0      10       8       20.0%
BITSFR7              0      0       0       8        0.0%
SFR7                 0      0       0       8        0.0%
BITBANK2            50      0       0       9        0.0%
BITSFR8              0      0       0       9        0.0%
SFR8                 0      0       0       9        0.0%
BANK2               50      0       0      10        0.0%
BITSFR9              0      0       0      10        0.0%
SFR9                 0      0       0      10        0.0%
BITBANK3            50      0       0      11        0.0%
BITSFR10             0      0       0      11        0.0%
SFR10                0      0       0      11        0.0%
BANK3               50      0       0      12        0.0%
BITSFR11             0      0       0      12        0.0%
SFR11                0      0       0      12        0.0%
BITBANK4            50      0       0      13        0.0%
BITSFR12             0      0       0      13        0.0%
SFR12                0      0       0      13        0.0%
BANK4               50      0       0      14        0.0%
BITSFR13             0      0       0      14        0.0%
SFR13                0      0       0      14        0.0%
BITBANK5            50      0       0      15        0.0%
BITSFR14             0      0       0      15        0.0%
SFR14                0      0       0      15        0.0%
BANK5               50      0       0      16        0.0%
BITSFR15             0      0       0      16        0.0%
SFR15                0      0       0      16        0.0%
BITBANK6            10      0       0      17        0.0%
BITSFR16             0      0       0      17        0.0%
SFR16                0      0       0      17        0.0%
BANK6               10      0       0      18        0.0%
BITSFR17             0      0       0      18        0.0%
SFR17                0      0       0      18        0.0%
BITSFR18             0      0       0      19        0.0%
SFR18                0      0       0      19        0.0%
DATA                 0      0      67      19        0.0%
BITSFR19             0      0       0      20        0.0%
SFR19                0      0       0      20        0.0%
BITSFR20             0      0       0      21        0.0%
SFR20                0      0       0      21        0.0%
BITSFR21             0      0       0      22        0.0%
SFR21                0      0       0      22        0.0%
BITSFR22             0      0       0      23        0.0%
SFR22                0      0       0      23        0.0%
BITSFR23             0      0       0      24        0.0%
SFR23                0      0       0      24        0.0%
BITSFR24             0      0       0      25        0.0%
SFR24                0      0       0      25        0.0%
BITSFR25             0      0       0      26        0.0%
SFR25                0      0       0      26        0.0%
BITSFR26             0      0       0      27        0.0%
SFR26                0      0       0      27        0.0%
BITSFR27             0      0       0      28        0.0%
SFR27                0      0       0      28        0.0%
BITSFR28             0      0       0      29        0.0%
SFR28                0      0       0      29        0.0%
BITSFR29             0      0       0      30        0.0%
SFR29                0      0       0      30        0.0%
BITSFR30             0      0       0      31        0.0%
SFR30                0      0       0      31        0.0%
BITSFR31             0      0       0      32        0.0%
SFR31                0      0       0      32        0.0%


Microchip Technology PIC Macro Assembler V2.46 build 20240104201356 
Symbol Table                                                                                   Wed Oct 22 16:13:24 2025

                       __end_of_LIN_breakCheck 05D9                  ?_EUSART_SetRxInterruptHandler 0071  
                        __end_of_LIN_getPacket 051C                          ??_LIN_setTimerHandler 0073  
                        __end_of_LIN_disableRx 0686                                    ?_LOBEAM_OFF 0070  
                                           l20 06B2                                             l30 06CA  
                                           l22 06B4                                             l15 06AF  
                                           l32 06CC                                             l40 06B8  
                                           l25 06C7                                             l17 06B1  
                                           l50 06C4                                             l42 06BA  
                                           l27 06C9                                             l35 06B5  
                                           l52 06C6                                             l60 06BE  
                                           l45 06C1                                             l37 06B7  
                                           l62 06C0                                             l70 06AC  
                                           l47 06C3                                             l55 06BB  
                                           l72 06AE                                             l57 06BD  
                                           l65 06A9                                             l81 0624  
                                           l67 06AB                                             l93 01D2  
                              _timer0ReloadVal 0040                                ?_LIN_calcParity 0070  
                                          l103 01D8                                            l104 01DE  
                                          l121 023A                                            l105 01E4  
                                          l107 01F3                                            l230 016B  
                                          l401 03D9                                            l410 06A8  
                                          l322 0550                                            l420 0493  
                                          l236 04DD                                            l500 069A  
                                          l404 06D1                                            l413 06CF  
                                          l261 02C0                                            l407 0644  
                                          l247 0395                                            l191 032B  
                                          l271 063B                                            l239 051B  
                                          l184 05B2                                            l257 0584  
                                          l425 044D                                            l281 0696  
                                          l426 0456                                            l603 05EB  
                                          l291 05D8                                            l267 0442  
                                          l507 0658                                            l284 0680  
                                          l268 0445                                            l429 046D  
                                          l461 066A                                            l470 0664  
                                          l278 064C                                            l287 0685  
                                          l464 0676                                            l458 0670  
                                          l467 065E                                            l571 062B  
                                          l491 0536                                            l574 0630  
                                          l494 06A5                                            l592 068A  
                                          l568 05C5                                            l497 067B  
                                          l577 0692                                            l595 05D9  
                                          l596 05E2                                            l597 05DD  
                                          l599 05E7                                            u710 0630  
                                          u711 062F                                            u930 05E1  
                                          u931 05E0                                            u940 05E7  
                                          u941 05E6                                            u950 05EB  
                                          u951 05EA                         ??_EUSART_RxDataHandler 0070  
               ?_EUSART_SetFramingErrorHandler 0071                       __end_of_LIN_getFromTable 0396  
                                          wreg 0009                 __end_of_EUSART_get_last_status 06D0  
                        __end_of_scheduleTable 068F                                   ?_EUSART_Read 0070  
                              __end_of_DRL_OFF 06CD                                __end_of_LEFT_ON 06BE  
                                         l2001 048A                                           l2003 048B  
                                         l1220 04AC                                           l2005 048D  
                                         l2013 032D                                           l2101 0678  
                                         l2007 0490                                           l2023 0343  
                                         l2031 035B                                           l2015 0332  
                                         l1223 04B8                                           l2111 016F  
                                         l2103 06A3                                           l2009 0492  
                                         l2041 0375                                           l2033 0362  
                                         l2025 0355                                           l2017 0336  
                                         l2201 022B                                           l2121 0186  
                                         l2113 0176                                           l2019 0338  
                                         l2203 022E                                           l2131 019E  
                                         l2123 018C                                           l2115 017C  
                                         l2107 0618                                           l2061 023C  
                                         l2037 0368                                           l2029 0357  
                                         l1229 056A                                           l2205 0233  
                                         l2133 01A4                                           l2125 0192  
                                         l2117 0182                                           l2109 016C  
                                         l2301 03CA                                           l2071 06CD  
                                         l2063 02B6                                           l2047 0382  
                                         l2207 0237                                           l2151 01C7  
                                         l2143 01B6                                           l2135 01AA  
                                         l2127 0198                                           l2119 0184  
                                         l2311 03D6                                           l2303 03CB  
                                         l2233 063C                                           l2065 02BF  
                                         l2241 0638                                           l2161 01D6  
                                         l2153 01CD                                           l2145 01BC  
                                         l2137 01B0                                           l2129 019C  
                                         l2081 0665                                           l2305 03CC  
                                         l2321 0524                                           l2251 05D7  
                                         l2243 05C6                                           l2163 01DC  
                                         l2139 01B4                                           l2083 0671  
                                         l2075 065F                                           l2307 03D1  
                                         l1611 0543                                           l1603 0537  
                                         l2331 052F                                           l2323 0526  
                                         l2245 05CE                                           l2261 0579  
                                         l2069 0697                                           l2237 0632  
                                         l2181 0203                                           l2165 01E2  
                                         l2149 01C1                                           l2173 01EE  
                                         l2077 0659                                           l2085 06D1  
                                         l2309 03D3                                           l1621 054E  
                                         l1613 0547                                           l1605 053C  
                                         l2325 052A                                           l2317 051C  
                                         l2247 05D5                                           l2263 0583  
                                         l2255 056C                                           l2271 0681  
                                         l2239 0635                                           l2191 0216  
                                         l2183 0207                                           l2175 01F7  
                                         l2167 01E8                                           l2159 01D2  
                                         l2079 066B                                           l2087 06A6  
                                         l1615 0549                                           l1607 053F  
                                         l2327 052D                                           l2319 0521  
                                         l2257 0577                                           l2193 021B  
                                         l2185 020A                                           l2177 01FB  
                                         l2169 01EB                                           l2601 006A  
                                         l2281 039F                                           l1617 054B  
                                         l1609 0541                                           l2329 052E  
                                         l2195 021F                                           l2187 020F  
                                         l2179 01FE                                           l2611 0084  
                                         l2603 006E                                           l2291 03B1  
                                         l2283 03A8                                           l1619 054C  
                                         l2197 0222                                           l2189 0213  
                                         l2613 0088                                           l2605 0071  
                                         l2293 03B3                                           l2285 03AB  
                                         l2277 0396                                           l1901 0653  
                                         l1911 049A                                           l1903 0693  
                                         l2199 0227                                           l2631 00B7  
                                         l2623 00A0                                           l2615 008C  
                                         l2607 0074                                           l2295 03BA  
                                         l2287 03AD                                           l2279 0398  
                                         l2471 05B3                                           l1905 067C  
                                         l1921 041D                                           l2561 04BD  
                                         l1913 049F                                           l2641 00D3  
                                         l2633 00C0                                           l2625 00A8  
                                         l2617 0094                                           l2609 007C  
                                         l2297 03C1                                           l2289 03AF  
                                         l1681 0628                                           l1923 0427  
                                         l1931 043C                                           l2563 04C7  
                                         l1915 04A3                                           l2571 02C7  
                                         l2651 00F5                                           l2643 00D7  
                                         l2635 00C5                                           l2627 00AD  
                                         l2619 009C                                           l2299 03C8  
                                         l1907 0645                                           l1683 0629  
                                         l1829 05D9                                           l1933 0444  
                                         l1925 042B                                           l1917 0414  
                                         l2565 04CC                                           l1909 0495  
                                         l2581 02DC                                           l2573 02CB  
                                         l1941 055A                                           l2661 0117  
                                         l2653 00F8                                           l2645 00DF  
                                         l2637 00CD                                           l1685 068F  
                                         l1687 0686                                           l1951 0457  
                                         l1927 0434                                           l1919 041B  
                                         l2567 04D2                                           l2559 04BB  
                                         l2591 0323                                           l2575 02CD  
                                         l2583 02E0                                           l1943 055E  
                                         l2671 0128                                           l2663 011B  
                                         l2655 0100                                           l2647 00EA  
                                         l2639 00D0                                           l1679 0625  
                                         l1953 045E                                           l1961 046B  
                                         l1945 0447                                           l1929 0438  
                                         l2585 02E6                                           l2569 02C3  
                                         l1937 0552                                           l2761 014B  
                                         l2681 013F                                           l2673 0129  
                                         l2665 011E                                           l2649 00F4  
                                         l2593 0054                                           l2763 038A  
                                         l1955 0462                                           l1947 0447  
                                         l2587 0300                                           l2579 02D8  
                                         l1939 0555                                           l1971 0501  
                                         l2675 0134                                           l2667 0123  
                                         l2659 0114                                           l2595 005A  
                                         l1963 059E                                           l2691 05FC  
                                         l1957 0468                                           l1949 0452  
                                         l2589 0318                                           l1973 0505  
                                         l2677 0139                                           l2669 0126  
                                         l2597 005F                                           l2685 0143  
                                         l1965 05A9                                           l2693 05FF  
                                         l1991 046E                                           l1959 0469  
                                         l1975 050F                                           l2679 013C  
                                         l2599 0062                                           l1967 05AC  
                                         l2695 0602                                           l1993 046E  
                                         l1977 051A                                           l1969 05AF  
                                         l2697 0603                                           l1995 0474  
                                         l2699 0604                                           l1997 0480  
                                         l1999 0484                                           u1110 0474  
                                         u1030 04B8                                           u1111 0473  
                                         u1031 04B7                                           u1120 048A  
                                         u1200 0257                                           u1040 0434  
                                         u1121 0489                                           u1201 0255  
                                         u1041 0433                                           u1210 025E  
                                         u1202 0258                                           u1130 0342  
                                         u1050 0442                                           u2010 04D2  
                                         u1211 025C                                           u1131 0341  
                                         u1051 0441                                           u2011 04D1  
                                         u1300 028D                                           u1220 0265  
                                         u1212 025F                                           u1140 0355  
                                         u2020 02D7                                           u1060 056A  
                                         u2100 009C                                           u1301 028B  
                                         u1221 0263                                           u1141 0354  
                                         u2021 02D6                                           u1061 0569  
                                         u2101 009B                                           u1150 0361  
                                         u1070 044D                                           u2030 02E6  
                                         u2110 00A8                                           u1151 0360  
                                         u1071 044C                                           u2031 02E5  
                                         u2111 00A7                                           u1400 02BE  
                                         u1320 0293                                           u1240 026B  
                                         u1160 0243                                           u1080 0452  
                                         u2120 00B6                                           u2040 005A  
                                         u1401 02BC                                           u1321 0291  
                                         u1241 0269                                           u1161 0241  
                                         u1081 0451                                           u2121 00B5  
                                         u2041 0059                                           u1330 029A  
                                         u1322 0294                                           u1314 028E  
                                         u1250 0272                                           u1242 026C  
                                         u1234 0266                                           u1170 024A  
                                         u1162 0244                                           u1090 0468  
                                         u2130 00C5                                           u2050 005F  
                                         u1331 0298                                           u1251 0270  
                                         u1171 0248                                           u1091 0467  
                                         u2131 00C4                                           u2051 005E  
                                         u1340 02A1                                           u1332 029B  
                                         u1260 0279                                           u1252 0273  
                                         u1180 0251                                           u1172 024B  
                                         u1500 01B0                                           u2140 00DF  
                                         u2060 006A                                           u1341 029F  
                                         u1261 0277                                           u1181 024F  
                                         u1501 01AF                                           u2141 00DE  
                                         u2061 0069                                           _LATA 010C  
                                         u1414 02BF                                           u1510 01BC  
                                         u1430 017C                                           u2150 00F4  
                                         u2070 007C                                           _LATB 010D  
                                         u1511 01BB                                           u1431 017B  
                                         u2151 00F3                                           u2071 007B  
                                         _LATC 010E                                           u1360 02A7  
                                         u1280 027F                                           u1600 020F  
                                         u1520 01C7                                           u1440 0182  
                                         u2160 0100                                           u2080 0084  
                                         u1361 02A5                                           u1281 027D  
                                         u1601 020E                                           u1521 01C6  
                                         u1441 0181                                           u2161 00FF  
                                         u2081 0083                                           _LATE 0110  
                                         u1370 02AE                                           u1362 02A8  
                                         u1354 02A2                                           u1290 0286  
                                         u1282 0280                                           u1274 027A  
                                         u1194 0252                                           u1610 021B  
                                         u1530 01CD                                           u1450 018C  
                                         u2170 0113                                           u2090 0094  
                                         u1371 02AC                                           u1291 0284  
                                         u1611 021A                                           u1531 01CC  
                                         u1451 018B                                           u2171 0112  
                                         u2091 0093                                           u1380 02B5  
                                         u1372 02AF                                           u1292 0287  
                                         u1700 0577                                           u1620 0227  
                                         u1540 01D6                                           u1460 0192  
                                         u2180 0139                                           u1381 02B3  
                                         u1701 0576                                           u1621 0226  
                                         u1541 01D5                                           u1461 0191  
                                         u2181 0138                                           u1710 0583  
                                         u1630 0233                                           u1550 01DC  
                                         u1470 0198                                           u1711 0582  
                                         u1631 0232                                           u1551 01DB  
                                         u1471 0197                                           u1560 01E2  
                                         u1480 01A4                                           u1561 01E1  
                                         u1481 01A3                                           u1394 02B6  
                                         u1570 01E8                                           u1490 01AA  
                                         u1571 01E7                                           u1491 01A9  
                                         u1660 0643                                           u1580 01F7  
                                         u1661 0641                                           u1581 01F6  
                                         u1670 0644                                           u1590 0203  
                                         u1591 0202                                           u1680 05CE  
                                         u1681 05CD                                           u1690 05D5  
                                         u1691 05D4                                           _PLLR 04D6  
                                         _TMR0 0015                                           _WPUB 020D  
                                         _WPUE 0210                                 _LIN_sendPacket 04B9  
                              __end_of_POS_OFF 06B5                                           _main 05FC  
                                         fsr0h 0005                                           fsr1h 0007  
                                         indf0 0000                                           fsr0l 0004  
                                         indf1 0001                                           fsr1l 0006  
                                         btemp 007E                                           start 0038  
                                processLIN@cmd 005C                                ?_LIN_breakCheck 0070  
                             __end_of_LEFT_OFF 06C1                        __end_of_TMR0_Initialize 0537  
               ??_TMR0_DefaultInterruptHandler 0070                                  ?_EUSART_Write 0070  
                __end_of_OSCILLATOR_Initialize 0631                              LIN_sendPacket@pid 0079  
                                        ?_main 0070                                LIN_init@command 0073  
                                        i1l510 06D2                                          i1l432 04FD  
                                        i1l504 05FB                                          i1l442 0412  
                                        i1l435 04FF                                          i1l275 0617  
                                        i1l531 0012                                          i1l452 069E  
                                        i1l446 059C                                          i1l534 0026  
                                        i1l455 06A2                                          i1l449 06D3  
                                        i1l538 0036                                          i1l539 0036  
                              _TMR0_WriteTimer 0677                                          _RCREG 0199  
                                        _RCSTA 019D                               __end_of_RIGHT_ON 06AC  
                                        _TRISA 008C                                          _TRISB 008D  
                                        _TRISC 008E                                          _TRISE 0090  
                                        _TXREG 019A                               __end_of_LIN_init 05B3  
                        __end_of_LIN_stopTimer 0697                                          _TXSTA 019E  
                    ?_TMR0_SetInterruptHandler 0071                               __end_of_TMR0_ISR 05FC  
                                        _fLock 004D                                 _WDT_Initialize 068F  
                       __end_of_LIN_sendPacket 04DE                                          pclath 000A  
                            ??_AutoBaud_Detect 0071                                 _LIN_startTimer 0631  
                                        status 0003                                          wtemp0 007E  
                             ?_LIN_getChecksum 0071                              __end_of_HIBEAM_ON 06C4  
                  LIN_queuePacket@tempSchedule 0065                                __initialization 003A  
                                 ?_LIN_handler 0070                                   __end_of_main 060A  
                               ??_EUSART_Write 0071                    ?_INTERRUPT_InterruptManager 0070  
               ??_EUSART_SetRxInterruptHandler 0073                                         ??_main 007B  
                            __end_of_LOBEAM_ON 06B8                                      ??_DRL_OFF 0071  
                                    ??_LEFT_ON 0071                         __end_of_WDT_Initialize 0693  
                           LIN_sendPacket@data 007A      __end_of_EUSART_DefaultFramingErrorHandler 06D4  
          ??_EUSART_DefaultFramingErrorHandler 0070             ?_EUSART_DefaultFramingErrorHandler 0070  
            _EUSART_DefaultFramingErrorHandler 06D3                                      ??_POS_OFF 0071  
                   _EUSART_OverrunErrorHandler 0034                         __end_of_LIN_startTimer 063C  
                              ?_LIN_sendPacket 0079                                         _APFCON 011D  
                                       _ANSELA 018C                                         _ANSELB 018D  
                   __end_of_EUSART_is_rx_ready 0645                                         _BORCON 0116  
                                       u200_20 0030                                         i1l2313 069B  
                                       u200_21 002F                                         i1l2091 0585  
                                       i1l2315 069F                                         i1l2093 058C  
                                       i1l2095 0590                                         i1l2431 04DE  
                                       i1l2097 0596                                         i1l2441 04F8  
                                       i1l2433 04E5                                         i1l2273 060A  
                                       i1l2099 0597                                         i1l2451 03EF  
                                       i1l2443 03DA                                         i1l2435 04EC  
                                       i1l2275 0615                                         i1l2461 040F  
                                       i1l2453 03F4                                         i1l2445 03DF  
                                       i1l2437 04F1                                         i1l2455 03F9  
                                       i1l2447 03E4                                         i1l2439 04F7  
                                       i1l2463 05EC                                         i1l2457 03FF  
                                       i1l2449 03E9                                         i1l2465 05ED  
                                       i1l2481 001B                                         i1l2473 0006  
                                       i1l2459 0408                                         i1l2467 05F0  
                                       i1l2483 0020                                         i1l2475 000A  
                                       i1l2469 05F6                                         i1l2485 002B  
                                       i1l2477 000E                                         i1l2487 0030  
                                       i1l2479 0016                                         _DRL_ON 06C7  
                                       u142_20 0596                                         u142_21 0595  
                                       u172_20 0615                                         u172_21 0614  
                   __end_of_EUSART_is_tx_ready 06D2                                         u190_20 03E4  
                                       u190_21 03E3                                         u191_20 03F4  
                                       u191_21 03F3                                         u192_20 0408  
                                       u192_21 0407                                         u193_20 05F6  
                                       u193_21 05F5                                         u194_20 000A  
                                       u194_21 0009                                         u195_20 000E  
                                       u195_21 000D                                         u188_20 04E5  
                                       u196_20 0016                                         u188_21 04E4  
                                       u196_21 0015                                         u189_20 04F7  
                                       u197_20 001B                                         u189_21 04F6  
                                       u197_21 001A                                         u198_20 0020  
                                       u198_21 001F                                         u199_20 002B  
                                       u199_21 002A                                         _OSCCON 0099  
                            __end_of_RIGHT_OFF 06AF                                         _SPBRGH 019C  
                                       _SPBRGL 019B                                         _WDTCON 0097  
                                       _POS_ON 06AF                                _LIN_processData 003E  
                                 ?_TMR0_Reload 0070                                _LIN_queuePacket 02C1  
                      __end_of_TMR0_WriteTimer 067C                            _EUSART_Transmit_ISR 04DE  
                                       _memcpy 0494                               ?_TMR0_Initialize 0070  
                                       _memset 0551                                   ??_HIBEAM_OFF 0071  
                              ?_WDT_Initialize 0070                               _LIN_rxInProgress 004B  
     TMR0_SetInterruptHandler@InterruptHandler 0071                                ?_LIN_startTimer 0070  
                         ?_EUSART_Transmit_ISR 0070                              _SYSTEM_Initialize 05B3  
                      __end_of__initialization 0050                                      ?_LEFT_OFF 0070  
                           ?_SYSTEM_Initialize 0070                             __end_of_HIBEAM_OFF 06C7  
                                ?_LIN_checkPID 0070           __end_of_EUSART_SetTxInterruptHandler 065F  
                 _EUSART_SetTxInterruptHandler 0659                                      ?_RIGHT_ON 0070  
                                    ?_LIN_init 0073                                 __pcstackCOMMON 0070  
                                ?_LIN_enableRx 0070                               ??_LIN_calcParity 0071  
                              LIN_sendPacket@i 005E                                   __pidataBANK0 06D0  
                          ??_SYSTEM_Initialize 0078                                      ?_TMR0_ISR 0070  
                                 ??_LOBEAM_OFF 0071                         LIN_handler@rxDataIndex 0046  
                               _OPTION_REGbits 0095                           _eusartRxStatusBuffer 0020  
                            ?_LIN_getFromTable 0071                         LIN_handler@LIN_rxState 0047  
              ??_EUSART_SetOverrunErrorHandler 0073                             ??_LIN_getFromTable 0072  
                    __end_of_SYSTEM_Initialize 05C6                          ??_EUSART_Transmit_ISR 0070  
                                   __pbssBANK0 0020                                     __pbssBANK1 00A0  
                                      ?_DRL_ON 0070                           __end_of_EUSART_Write 046E  
                           __end_of_LOBEAM_OFF 06BB                                     ??_LEFT_OFF 0071  
                                      ?_POS_ON 0070                               ??_LIN_breakCheck 0073  
                               ??_LIN_checkPID 0078                    __end_of_LIN_setTimerHandler 064D  
                      __end_of_LIN_queuePacket 032C                                     ??_RIGHT_ON 0071  
                               ??_LIN_enableRx 0071                                     __pmaintext 05FC  
                             _LIN_timerHandler 060A                                     ??_LIN_init 0077  
                          LIN_getChecksum@data 0072                  ?_EUSART_SetTxInterruptHandler 0071  
             _EUSART_TxDefaultInterruptHandler 003A               __end_of_TMR0_SetInterruptHandler 0659  
                                   ??_TMR0_ISR 0071                                     __pintentry 0004  
                             ?_TMR0_WriteTimer 0070                                        ?_memcpy 0071  
                                      _BAUDCON 019F                                        ?_memset 0071  
                 ??_EUSART_DefaultErrorHandler 0071                          LIN_getChecksum@length 0075  
                             _LIN_timerRunning 0049                                  _eusartRxCount 0042  
                              _AutoBaud_Detect 05D9                                        _DRL_OFF 06CA  
                                      _LEFT_ON 06BB                                        _OSCTUNE 0098  
                                      _POS_OFF 06B2                       ??_EUSART_SetErrorHandler 0073  
                      LIN_getChecksum@checksum 0077                   __end_of_LIN_Slave_Initialize 0625  
                                _SW_STATE_Data 00A8                                      _HIBEAM_ON 06C1  
                                      __ptext1 05B3                                        __ptext2 068F  
                                      __ptext3 051C                                        __ptext4 0677  
                                      __ptext5 06A3                                        __ptext6 0537  
                                      __ptext7 0625                                        __ptext8 0618  
                                      __ptext9 059D                          _OSCILLATOR_Initialize 0625  
                             ??_LIN_sendPacket 005C                       ??_PIN_MANAGER_Initialize 0071  
                                    _LOBEAM_ON 06B5                                        clrloop0 064E  
                    LIN_getFromTable@rxCommand 0076                           end_of_initialization 0050  
        __end_of_EUSART_SetOverrunErrorHandler 066B                  _EUSART_SetOverrunErrorHandler 0665  
                                      memcpy@d 0076                                        memcpy@n 0072  
                                      memcpy@s 0077                                        memset@c 0071  
                                      memset@n 0073                                        memset@p 0076  
                            _EUSART_Initialize 0396                               ?_LIN_queuePacket 0070  
                                    _RIGHT_OFF 06AC                             ?_EUSART_Initialize 0070  
                                    _RCSTAbits 019D                             _EUSART_is_rx_ready 063C  
                           _EUSART_is_tx_ready 06D1                                  _LIN_getPacket 0500  
                      __end_of_AutoBaud_Detect 05EC                                     ?_HIBEAM_ON 0070  
                               _TMR0_ReadTimer 06A3                                  _LIN_disableRx 0681  
                     ??_EUSART_get_last_status 0071                            ??_EUSART_Initialize 0073  
                             ??_WDT_Initialize 0071                 ??_EUSART_SetTxInterruptHandler 0073  
                            LIN_getPacket@data 007A                       _TMR0_SetInterruptHandler 0653  
                          ?_EUSART_is_rx_ready 0070                                     _processLIN 016C  
                          ?_EUSART_is_tx_ready 0070                           __end_of_LIN_checkPID 0585  
                          LIN_init@tableLength 0077                               ??_LIN_startTimer 0071  
                         __end_of_LIN_enableRx 0681                                     ?_LOBEAM_ON 0070  
                                _scheduleTable 068B                      __end_of_EUSART_Initialize 03DA  
                         ??_EUSART_is_rx_ready 0071                                 __end_of_DRL_ON 06CA  
                         ??_EUSART_is_tx_ready 0071                                      _TXSTAbits 019E  
                               __end_of_POS_ON 06B2                                  _LIN_rxCommand 003C  
                                   ?_RIGHT_OFF 0070                         __end_of_TMR0_ReadTimer 06A6  
                               ?_LIN_getPacket 0070                                 ?_LIN_disableRx 0070  
           __end_of_EUSART_DefaultErrorHandler 06A3                     _EUSART_DefaultErrorHandler 069F  
                                  _BAUDCONbits 019F                                   _EUSART_Write 0446  
                               __end_of_memcpy 04B9                         ?_OSCILLATOR_Initialize 0070  
                               __end_of_memset 056B                            start_initialization 003A  
                                _LIN_stopTimer 0693                       __end_of_LIN_timerHandler 0618  
                         _LIN_Slave_Initialize 0618                                  ??_EUSART_Read 0071  
                   __end_of_AutoBaud_Detect_ON 068B   EUSART_SetRxInterruptHandler@interruptHandler 0071  
 EUSART_SetTxInterruptHandler@interruptHandler 0071                                       ??_DRL_ON 0071  
                        LIN_startTimer@timeout 0071                                       ??_POS_ON 0071  
                            LIN_calcParity@CMD 0072                 ?_EUSART_SetOverrunErrorHandler 0071  
                            LIN_calcParity@PID 0073                     _EUSART_FramingErrorHandler 0036  
                              ?_TMR0_ReadTimer 0070                         _EUSART_SetErrorHandler 0671  
                                  ??_HIBEAM_ON 0071                               ?_AutoBaud_Detect 0070  
                                  __pdataBANK0 0069                                       ??_memcpy 0074  
                                     ??_memset 0075                           processLIN@tempRxData 005D  
                                   memset@dest 0077                                    ?_processLIN 0070  
                          LIN_init@processData 0075                                       ?_DRL_OFF 0070  
                                     ?_LEFT_ON 0070                    __end_of_EUSART_Transmit_ISR 0500  
                               ?_LIN_stopTimer 0070                                    __pbssCOMMON 007B  
                                    ___latbits 0002                                  __pcstackBANK0 005C  
                            ??_LIN_getChecksum 0073                          ?_LIN_Slave_Initialize 0070  
                                  ??_LOBEAM_ON 0071                                       ?_POS_OFF 0070  
                   __end_of_EUSART_Receive_ISR 0413               _EUSART_RxDefaultInterruptHandler 0038  
                          __end_of_EUSART_Read 0494                          _TMR0_InterruptHandler 0030  
                 __end_of_EUSART_RxDataHandler 059D                                ??_LIN_getPacket 0079  
                                  ??_RIGHT_OFF 0071                         _PIN_MANAGER_Initialize 0537  
                                ??_LIN_handler 0067                               LIN_getChecksum@i 0076  
                              ??_LIN_disableRx 0071                           EUSART_Read@readValue 0072  
                           LIN_getChecksum@pid 0071                           LIN_sendPacket@length 005D  
                                 _eusartRxHead 007C                                   _eusartTxHead 0045  
                                 _eusartRxTail 007B                                   _eusartTxTail 0044  
                 ??_INTERRUPT_InterruptManager 0071                                      _lampFlags 004C  
                      _eusartTxBufferRemaining 0043                                      _lampState 004E  
                              LIN_checkPID@pid 0078                                 _eusartRxBuffer 00A0  
                       _EUSART_get_last_status 06CD                              ??_TMR0_Initialize 0073  
                                     _LEFT_OFF 06BE                                 _eusartTxBuffer 0028  
       EUSART_SetErrorHandler@interruptHandler 0071                                       _LATBbits 010D  
                                    clear_ram0 064D                                       _PIE1bits 0091  
                            _eusartRxLastError 0041                                   _LIN_checkPID 056B  
                   ??_TMR0_SetInterruptHandler 0073                                       _PIR1bits 0011  
                                     _RIGHT_ON 06A9                ??_EUSART_SetFramingErrorHandler 0073  
                                ??_TMR0_Reload 0071                                       _LIN_init 059D  
                            _EUSART_is_tx_done 06A6                                   _LIN_enableRx 067C  
                                     _TMR0_ISR 05EC      __end_of_EUSART_DefaultOverrunErrorHandler 069F  
          ??_EUSART_DefaultOverrunErrorHandler 0070             ?_EUSART_DefaultOverrunErrorHandler 0070  
            _EUSART_DefaultOverrunErrorHandler 069B                               LIN_getPacket@cmd 0079  
                           ?_EUSART_is_tx_done 0070                            __end_of_LIN_handler 016C  
                              ??_LIN_stopTimer 0071                            ??_EUSART_is_tx_done 0071  
                       ??_LIN_Slave_Initialize 0078                                    _EUSART_Read 046E  
                             _LIN_getFromTable 032C                      __end_of_EUSART_is_tx_done 06A9  
                                    memcpy@tmp 0075                        ??_OSCILLATOR_Initialize 0071  
                          _EUSART_ErrorHandler 0032                    ?_EUSART_DefaultErrorHandler 0070  
                                   _HIBEAM_OFF 06C4                            __end_of_TMR0_Reload 069B  
                         _EUSART_RxDataHandler 0585                                       __ptext10 0645  
                                     __ptext11 0653                                       __ptext20 0054  
                                     __ptext12 0396                                       __ptext21 016C  
                                     __ptext13 06D1                                       __ptext30 06BB  
                                     __ptext22 06A9                                       __ptext14 06A6  
                                     __ptext31 06BE                                       __ptext23 06AC  
                                     __ptext15 0659                                       __ptext40 0494  
                                     __ptext32 06C1                                       __ptext24 06AF  
                                     __ptext16 065F                                       __ptext41 04B9  
                                     __ptext33 06C4                                       __ptext25 06B2  
                                     __ptext17 0665                                       __ptext50 06CD  
                                     __ptext42 0413                                       __ptext34 06C7  
                                     __ptext26 06B5                                       __ptext18 066B  
                                     __ptext51 046E                                       __ptext43 0446  
                                     __ptext35 06CA                                       __ptext27 06B8  
                                     __ptext19 0671                                       __ptext60 03DA  
                                     __ptext52 063C                                       __ptext44 067C  
                                     __ptext36 0693                                       __ptext28 0500  
                                     __ptext61 069B                                       __ptext53 05D9  
                                     __ptext45 0681                                       __ptext37 0631  
                                     __ptext29 0551                                       __ptext62 06D3  
                                     __ptext54 0686                                       __ptext46 056B  
                                     __ptext38 0697                                       __ptext63 069F  
                                     __ptext47 032C                                       __ptext39 02C1  
                                     __ptext64 0585                                       __ptext56 05EC  
                                     __ptext48 023B                                       __ptext57 060A  
                                     __ptext49 05C6                                       __ptext58 06D2  
                                     __ptext59 04DE                              ?_LIN_timerHandler 0070  
                      TMR0_WriteTimer@timerVal 0071                             ??_LIN_timerHandler 0070  
                            ??_TMR0_WriteTimer 0071                         LIN_getFromTable@length 0075  
                             ??_TMR0_ReadTimer 0071           __end_of_TMR0_DefaultInterruptHandler 06D3  
                 _TMR0_DefaultInterruptHandler 06D2                        ?_EUSART_SetErrorHandler 0071  
                           _AutoBaud_Detect_ON 0686                            _LIN_rxCommandLength 004A  
EUSART_SetOverrunErrorHandler@interruptHandler 0071                                    _LIN_handler 0054  
                                     int$flags 007E                                     _LOBEAM_OFF 06B8  
                              _LIN_getChecksum 0413             __end_of_INTERRUPT_InterruptManager 0038  
                   _INTERRUPT_InterruptManager 0004                            ?_AutoBaud_Detect_ON 0070  
        __end_of_EUSART_SetFramingErrorHandler 0671                  _EUSART_SetFramingErrorHandler 066B  
                                 ??_processLIN 007B                                    _LIN_timeout 0069  
                               _LIN_calcParity 023B                                     _INTCONbits 000B  
                        ?_EUSART_RxDataHandler 0070                                       memcpy@d1 0078  
                                     memcpy@s1 0071                            _LIN_setTimerHandler 0645  
                         ??_AutoBaud_Detect_ON 0071                                       intlevel1 0000  
                                _CountCallBack 0048                        ?_PIN_MANAGER_Initialize 0070  
               __end_of_EUSART_SetErrorHandler 0677                          LIN_getFromTable@param 0071  
                           __end_of_processLIN 023B           __end_of_EUSART_SetRxInterruptHandler 0665  
                 _EUSART_SetRxInterruptHandler 065F                  ?_TMR0_DefaultInterruptHandler 0070  
                                  _TMR0_Reload 0697                                     _LIN_packet 004F  
                           _EUSART_Receive_ISR 03DA                           ?_LIN_setTimerHandler 0070  
EUSART_SetFramingErrorHandler@interruptHandler 0071                                 _LIN_breakCheck 05C6  
                                  ?_HIBEAM_OFF 0070                         __end_of_LIN_calcParity 02C1  
                                __pstringtext1 068B                             LIN_queuePacket@cmd 0063  
                                   _OPTION_REG 0095                            ?_EUSART_Receive_ISR 0070  
                              _TMR0_Initialize 051C                              ??_LIN_queuePacket 005F  
                      ?_EUSART_get_last_status 0070                             EUSART_Write@txData 0072  
               __end_of_PIN_MANAGER_Initialize 0551                            LIN_getFromTable@cmd 0074  
                             LIN_queuePacket@i 0064                           ??_EUSART_Receive_ISR 0071  
                      __end_of_LIN_getChecksum 0446  
